.section .text
.extern memcpy
.extern memset
.extern malloc
.extern realloc
.extern strcmp
.extern strlen
.extern snprintf
.file 1 "src/main"
.loc 1 1 0
.file 2 "src/file"
.loc 2 2 1
.loc 2 3 1
.loc 2 4 1
.loc 2 5 1
.loc 2 6 1
.loc 2 8 1
.globl print_location_of_error
print_location_of_error:
.cfi_startproc
	pushq %rbp
.cfi_def_cfa_offset 16
.cfi_offset 6, -16
	movq %rsp, %rbp
.cfi_def_cfa_register 6
	subq $16, %rsp
.loc 2 9 5
	movl $1, %eax
	negl %eax
	movl %eax, -4(%rbp)
.loc 2 10 5
	movl $1, %eax
	negl %eax
	movl %eax, -8(%rbp)
.loc 2 11 5
	movl $1, %eax
	movl %eax, -12(%rbp)
.loc 2 13 5
	subq $16, %rsp
.loc 2 13 10
	movl $0, %eax
	movl %eax, -16(%rbp)
.L1_for_start:
	movl -16(%rbp), %eax
	pushq %rax
	movq .input_text(%rip), %rax
	subq $8, %rsp
	movq %rax, %rdi
	call strlen
	movl %eax, %edx
	addq $8, %rsp
	popq %rax
	cmpl %edx, %eax
	setl %al
	movb %al, %al
	cmpb $0, %al
	jz .L1_for_end
.loc 2 14 9
	movq .input_text(%rip), %rax
	pushq %rax
	movl -16(%rbp), %edx
	popq %rax
	leaq (%rax, %rdx, 1), %rax
	movb (%rax), %al
	movb .char_3(%rip), %dl
	cmpb %dl, %al
	sete %al
	movb %al, %al
	cmpb $0, %al
	jz .L2_end
	subq $16, %rsp
.loc 2 15 13
	movl -16(%rbp), %eax
	movl 16(%rbp), %edx
	cmpl %edx, %eax
	setl %al
	movb %al, %al
	cmpb $0, %al
	jz .L3_else
	subq $16, %rsp
.loc 2 16 17
	leaq -4(%rbp), %rax
	pushq %rax
	movl -16(%rbp), %eax
	popq %rbx
	movl %eax, (%rbx)
.loc 2 17 17
	leaq -12(%rbp), %rax
	pushq %rax
	movl -12(%rbp), %eax
	movl $1, %edx
	addl %edx, %eax
	popq %rbx
	movl %eax, (%rbx)
	jmp .L3_end
	addq $16, %rsp
.L3_else:
	subq $16, %rsp
.loc 2 20 17
	leaq -8(%rbp), %rax
	pushq %rax
	movl -16(%rbp), %eax
	popq %rbx
	movl %eax, (%rbx)
.loc 2 21 17
	jmp .L1_for_end
	jmp .L3_end
	addq $16, %rsp
.L3_end:
	jmp .L2_end
	addq $16, %rsp
.L2_end:
.L1_for_inc:
.loc 2 13 43
	leaq -16(%rbp), %rax
	pushq %rax
	movl -16(%rbp), %eax
	movl $1, %edx
	addl %edx, %eax
	popq %rbx
	movl %eax, (%rbx)
	jmp .L1_for_start
.L1_for_end:
	addq $16, %rsp
.loc 2 26 5
	movl 16(%rbp), %eax
	movl -4(%rbp), %edx
	subl %edx, %eax
	movl %eax, -16(%rbp)
.loc 2 27 5
	subq $8, %rsp
	leaq .str_4(%rip), %rax
	pushq %rax
	call warn
	addq $8, %rsp
	addq $8, %rsp
.loc 2 28 5
	subq $8, %rsp
	movq .input_text(%rip), %rax
	pushq %rax
	movl -4(%rbp), %eax
	movl $1, %edx
	addl %edx, %eax
	movl %eax, %eax
	movslq %eax, %r12
	movl -8(%rbp), %eax
	movslq %eax, %r13
	popq %rax
	subq %r12, %r13
	leaq (%rax, %r12, 1), %r14
	subq $8, %rsp
	leaq (, %r13, 1), %rdi
	addq $1, %rdi
	call malloc
	movq %r13, %rdx
	movq %r14, %rsi
	movq %rax, %rdi
	call memcpy
	movq $0, (%rax, %r13, 1)
	addq $8, %rsp
	pushq %rax
	call warn
	addq $8, %rsp
	addq $8, %rsp
.loc 2 29 5
	subq $8, %rsp
	leaq .str_5(%rip), %rax
	pushq %rax
	call warn
	addq $8, %rsp
	addq $8, %rsp
.loc 2 30 5
	subq $32, %rsp
.loc 2 30 10
	movl $0, %eax
	movl %eax, -20(%rbp)
.L4_for_start:
	movl -20(%rbp), %eax
	pushq %rax
	movl -16(%rbp), %eax
	movl $1, %edx
	subl %edx, %eax
	movl %eax, %edx
	popq %rax
	cmpl %edx, %eax
	setl %al
	movb %al, %al
	cmpb $0, %al
	jz .L4_for_end
.loc 2 31 9
	movq .input_text(%rip), %rax
	pushq %rax
	movl -4(%rbp), %eax
	movl $1, %edx
	addl %edx, %eax
	movl %eax, %eax
	movl -20(%rbp), %edx
	addl %edx, %eax
	movl %eax, %edx
	popq %rax
	leaq (%rax, %rdx, 1), %rax
	movb (%rax), %al
	movb .char_6(%rip), %dl
	cmpb %dl, %al
	sete %al
	movb %al, %al
	cmpb $0, %al
	jz .L5_else
	subq $32, %rsp
.loc 2 32 13
	subq $8, %rsp
	leaq .str_7(%rip), %rax
	pushq %rax
	call warn
	addq $8, %rsp
	addq $8, %rsp
	jmp .L5_end
	addq $32, %rsp
.L5_else:
	subq $32, %rsp
.loc 2 35 13
	subq $8, %rsp
	leaq .str_8(%rip), %rax
	pushq %rax
	call warn
	addq $8, %rsp
	addq $8, %rsp
	jmp .L5_end
	addq $32, %rsp
.L5_end:
.L4_for_inc:
.loc 2 30 44
	leaq -20(%rbp), %rax
	pushq %rax
	movl -20(%rbp), %eax
	movl $1, %edx
	addl %edx, %eax
	popq %rbx
	movl %eax, (%rbx)
	jmp .L4_for_start
.L4_for_end:
	addq $32, %rsp
.loc 2 38 5
	subq $8, %rsp
	leaq .str_9(%rip), %rax
	pushq %rax
	call warn
	addq $8, %rsp
	addq $8, %rsp
.loc 2 39 5
	subq $8, %rsp
	leaq .str_10(%rip), %rax
	movq .curr_file(%rip), %rdx
	pushq %rdx
	pushq %rax
	movq $64, %rdi
	call malloc
	movq %rax, %r15
	movq $0, %r14
	movq $64, %r13
	popq %r12
	call __append_string_to_builder
	popq %r12
	subq $8, %rsp
	call __append_string_to_builder
	addq $8, %rsp
	movq %r15, %rax
	movq %rax, %rax
	leaq .str_11(%rip), %rdx
	movq %rdx, %r12
	subq $8, %rsp
	call __append_string_to_builder
	addq $8, %rsp
	movq %r15, %rax
	movq %rax, %rax
	pushq %rax
	subq $12, %rsp
	movl -12(%rbp), %eax
	subq $4, %rsp
	movl %eax, (%rsp)
	call int_to_str
	movq %rax, %rdx
	addq $4, %rsp
	addq $12, %rsp
	popq %rax
	pushq %rdx
	pushq %rax
	movq $64, %rdi
	call malloc
	movq %rax, %r15
	movq $0, %r14
	movq $64, %r13
	popq %r12
	call __append_string_to_builder
	popq %r12
	subq $8, %rsp
	call __append_string_to_builder
	addq $8, %rsp
	movq %r15, %rax
	movq %rax, %rax
	leaq .str_12(%rip), %rdx
	movq %rdx, %r12
	subq $8, %rsp
	call __append_string_to_builder
	addq $8, %rsp
	movq %r15, %rax
	movq %rax, %rax
	pushq %rax
	subq $12, %rsp
	movl -16(%rbp), %eax
	subq $4, %rsp
	movl %eax, (%rsp)
	call int_to_str
	movq %rax, %rdx
	addq $4, %rsp
	addq $12, %rsp
	popq %rax
	pushq %rdx
	pushq %rax
	movq $64, %rdi
	call malloc
	movq %rax, %r15
	movq $0, %r14
	movq $64, %r13
	popq %r12
	call __append_string_to_builder
	popq %r12
	subq $8, %rsp
	call __append_string_to_builder
	addq $8, %rsp
	movq %r15, %rax
	movq %rax, %rax
	leaq .str_13(%rip), %rdx
	movq %rdx, %r12
	subq $8, %rsp
	call __append_string_to_builder
	addq $8, %rsp
	movq %r15, %rax
	movq %rax, %rax
	pushq %rax
	call warn
	addq $8, %rsp
	addq $8, %rsp
	addq $16, %rsp
	leave
.cfi_def_cfa 7, 8
	ret
.cfi_endproc
.loc 2 43 1
.loc 2 45 1
.globl calculate_line_positions
calculate_line_positions:
.cfi_startproc
	pushq %rbp
.cfi_def_cfa_offset 16
.cfi_offset 6, -16
	movq %rsp, %rbp
.cfi_def_cfa_register 6
.loc 2 46 5
	leaq .line_positions(%rip), %rax
	pushq %rax
	subq $8, %rsp
	movq $16, %rdi
	call malloc
	movq %rax, %rbx
	movl $0, 8(%rbx)
	movl $4, 12(%rbx)
	movq $16, %rdi
	call malloc
	movq %rax, %rdi
	movq $0, %rsi
	movq $16, %rdx
	call memset
	movq %rax, (%rbx)
	movq %rbx, %rax
	addq $8, %rsp
	popq %rbx
	movq %rax, (%rbx)
.loc 2 47 5
	movq .line_positions(%rip), %rax
	pushq %rax
	movl $0, %ebx
	popq %rax
	call __append_long
	movl (%rax), %eax
	addl $1, 8(%r12)
.loc 2 48 5
	subq $16, %rsp
.loc 2 48 10
	movl $0, %eax
	movl %eax, -4(%rbp)
.L16_for_start:
	movl -4(%rbp), %eax
	pushq %rax
	movq .input_text(%rip), %rax
	subq $8, %rsp
	movq %rax, %rdi
	call strlen
	movl %eax, %edx
	addq $8, %rsp
	popq %rax
	cmpl %edx, %eax
	setl %al
	movb %al, %al
	cmpb $0, %al
	jz .L16_for_end
.loc 2 49 9
	movq .input_text(%rip), %rax
	pushq %rax
	movl -4(%rbp), %edx
	popq %rax
	leaq (%rax, %rdx, 1), %rax
	movb (%rax), %al
	movb .char_14(%rip), %dl
	cmpb %dl, %al
	sete %al
	movb %al, %al
	cmpb $0, %al
	jz .L17_end
	subq $16, %rsp
.loc 2 50 13
	movq .line_positions(%rip), %rax
	pushq %rax
	movl -4(%rbp), %ebx
	popq %rax
	call __append_long
	movl (%rax), %eax
	addl $1, 8(%r12)
	jmp .L17_end
	addq $16, %rsp
.L17_end:
.L16_for_inc:
.loc 2 48 43
	leaq -4(%rbp), %rax
	pushq %rax
	movl -4(%rbp), %eax
	movl $1, %edx
	addl %edx, %eax
	popq %rbx
	movl %eax, (%rbx)
	jmp .L16_for_start
.L16_for_end:
	addq $16, %rsp
	leave
.cfi_def_cfa 7, 8
	ret
.cfi_endproc
.loc 1 2 1
.file 3 "src/enum"
.loc 3 1 0
.loc 3 82 1
.globl debug_token_value_to_str
debug_token_value_to_str:
.cfi_startproc
	pushq %rbp
.cfi_def_cfa_offset 16
.cfi_offset 6, -16
	movq %rsp, %rbp
.cfi_def_cfa_register 6
.loc 3 83 5
	movl 16(%rbp), %eax
	movl $0, %edx
	cmpl %edx, %eax
	sete %al
	movb %al, %al
	cmpb $0, %al
	jz .L19_elseif_0
.loc 3 84 9
	leaq .str_15(%rip), %rax
	leave
.cfi_def_cfa 7, 8
	ret
	jmp .L19_end
.L19_elseif_0:
	movl 16(%rbp), %eax
	movl $1, %edx
	cmpl %edx, %eax
	sete %al
	movb %al, %al
	cmpb $0, %al
	jz .L19_elseif_1
.loc 3 87 9
	leaq .str_16(%rip), %rax
	leave
.cfi_def_cfa 7, 8
	ret
	jmp .L19_end
.L19_elseif_1:
	movl 16(%rbp), %eax
	movl $2, %edx
	cmpl %edx, %eax
	sete %al
	movb %al, %al
	cmpb $0, %al
	jz .L19_elseif_2
.loc 3 90 9
	leaq .str_17(%rip), %rax
	leave
.cfi_def_cfa 7, 8
	ret
	jmp .L19_end
.L19_elseif_2:
	movl 16(%rbp), %eax
	movl $3, %edx
	cmpl %edx, %eax
	sete %al
	movb %al, %al
	cmpb $0, %al
	jz .L19_elseif_3
.loc 3 93 9
	leaq .str_18(%rip), %rax
	leave
.cfi_def_cfa 7, 8
	ret
	jmp .L19_end
.L19_elseif_3:
	movl 16(%rbp), %eax
	movl $4, %edx
	cmpl %edx, %eax
	sete %al
	movb %al, %al
	cmpb $0, %al
	jz .L19_elseif_4
.loc 3 96 9
	leaq .str_19(%rip), %rax
	leave
.cfi_def_cfa 7, 8
	ret
	jmp .L19_end
.L19_elseif_4:
	movl 16(%rbp), %eax
	movl $5, %edx
	cmpl %edx, %eax
	sete %al
	movb %al, %al
	cmpb $0, %al
	jz .L19_elseif_5
.loc 3 99 9
	leaq .str_20(%rip), %rax
	leave
.cfi_def_cfa 7, 8
	ret
	jmp .L19_end
.L19_elseif_5:
	movl 16(%rbp), %eax
	movl $6, %edx
	cmpl %edx, %eax
	sete %al
	movb %al, %al
	cmpb $0, %al
	jz .L19_elseif_6
.loc 3 102 9
	leaq .str_21(%rip), %rax
	leave
.cfi_def_cfa 7, 8
	ret
	jmp .L19_end
.L19_elseif_6:
	movl 16(%rbp), %eax
	movl $7, %edx
	cmpl %edx, %eax
	sete %al
	movb %al, %al
	cmpb $0, %al
	jz .L19_elseif_7
.loc 3 105 9
	leaq .str_22(%rip), %rax
	leave
.cfi_def_cfa 7, 8
	ret
	jmp .L19_end
.L19_elseif_7:
	movl 16(%rbp), %eax
	movl $8, %edx
	cmpl %edx, %eax
	sete %al
	movb %al, %al
	cmpb $0, %al
	jz .L19_elseif_8
.loc 3 108 9
	leaq .str_23(%rip), %rax
	leave
.cfi_def_cfa 7, 8
	ret
	jmp .L19_end
.L19_elseif_8:
	movl 16(%rbp), %eax
	movl $9, %edx
	cmpl %edx, %eax
	sete %al
	movb %al, %al
	cmpb $0, %al
	jz .L19_elseif_9
.loc 3 111 9
	leaq .str_24(%rip), %rax
	leave
.cfi_def_cfa 7, 8
	ret
	jmp .L19_end
.L19_elseif_9:
	movl 16(%rbp), %eax
	movl $10, %edx
	cmpl %edx, %eax
	sete %al
	movb %al, %al
	cmpb $0, %al
	jz .L19_elseif_10
.loc 3 114 9
	leaq .str_25(%rip), %rax
	leave
.cfi_def_cfa 7, 8
	ret
	jmp .L19_end
.L19_elseif_10:
	movl 16(%rbp), %eax
	movl $11, %edx
	cmpl %edx, %eax
	sete %al
	movb %al, %al
	cmpb $0, %al
	jz .L19_elseif_11
.loc 3 117 9
	leaq .str_26(%rip), %rax
	leave
.cfi_def_cfa 7, 8
	ret
	jmp .L19_end
.L19_elseif_11:
	movl 16(%rbp), %eax
	movl $12, %edx
	cmpl %edx, %eax
	sete %al
	movb %al, %al
	cmpb $0, %al
	jz .L19_elseif_12
.loc 3 120 9
	leaq .str_27(%rip), %rax
	leave
.cfi_def_cfa 7, 8
	ret
	jmp .L19_end
.L19_elseif_12:
	movl 16(%rbp), %eax
	movl $13, %edx
	cmpl %edx, %eax
	sete %al
	movb %al, %al
	cmpb $0, %al
	jz .L19_elseif_13
.loc 3 123 9
	leaq .str_28(%rip), %rax
	leave
.cfi_def_cfa 7, 8
	ret
	jmp .L19_end
.L19_elseif_13:
	movl 16(%rbp), %eax
	movl $15, %edx
	cmpl %edx, %eax
	sete %al
	movb %al, %al
	cmpb $0, %al
	jz .L19_elseif_14
.loc 3 126 9
	leaq .str_29(%rip), %rax
	leave
.cfi_def_cfa 7, 8
	ret
	jmp .L19_end
.L19_elseif_14:
	movl 16(%rbp), %eax
	movl $17, %edx
	cmpl %edx, %eax
	sete %al
	movb %al, %al
	cmpb $0, %al
	jz .L19_elseif_15
.loc 3 129 9
	leaq .str_30(%rip), %rax
	leave
.cfi_def_cfa 7, 8
	ret
	jmp .L19_end
.L19_elseif_15:
	movl 16(%rbp), %eax
	movl $18, %edx
	cmpl %edx, %eax
	sete %al
	movb %al, %al
	cmpb $0, %al
	jz .L19_elseif_16
.loc 3 132 9
	leaq .str_31(%rip), %rax
	leave
.cfi_def_cfa 7, 8
	ret
	jmp .L19_end
.L19_elseif_16:
	movl 16(%rbp), %eax
	movl $19, %edx
	cmpl %edx, %eax
	sete %al
	movb %al, %al
	cmpb $0, %al
	jz .L19_elseif_17
.loc 3 135 9
	leaq .str_32(%rip), %rax
	leave
.cfi_def_cfa 7, 8
	ret
	jmp .L19_end
.L19_elseif_17:
	movl 16(%rbp), %eax
	movl $20, %edx
	cmpl %edx, %eax
	sete %al
	movb %al, %al
	cmpb $0, %al
	jz .L19_elseif_18
.loc 3 138 9
	leaq .str_33(%rip), %rax
	leave
.cfi_def_cfa 7, 8
	ret
	jmp .L19_end
.L19_elseif_18:
	movl 16(%rbp), %eax
	movl $16, %edx
	cmpl %edx, %eax
	sete %al
	movb %al, %al
	cmpb $0, %al
	jz .L19_elseif_19
.loc 3 141 9
	leaq .str_34(%rip), %rax
	leave
.cfi_def_cfa 7, 8
	ret
	jmp .L19_end
.L19_elseif_19:
	movl 16(%rbp), %eax
	movl $21, %edx
	cmpl %edx, %eax
	sete %al
	movb %al, %al
	cmpb $0, %al
	jz .L19_elseif_20
.loc 3 144 9
	leaq .str_35(%rip), %rax
	leave
.cfi_def_cfa 7, 8
	ret
	jmp .L19_end
.L19_elseif_20:
	movl 16(%rbp), %eax
	movl $22, %edx
	cmpl %edx, %eax
	sete %al
	movb %al, %al
	cmpb $0, %al
	jz .L19_elseif_21
.loc 3 147 9
	leaq .str_36(%rip), %rax
	leave
.cfi_def_cfa 7, 8
	ret
	jmp .L19_end
.L19_elseif_21:
	movl 16(%rbp), %eax
	movl $23, %edx
	cmpl %edx, %eax
	sete %al
	movb %al, %al
	cmpb $0, %al
	jz .L19_elseif_22
.loc 3 150 9
	leaq .str_37(%rip), %rax
	leave
.cfi_def_cfa 7, 8
	ret
	jmp .L19_end
.L19_elseif_22:
	movl 16(%rbp), %eax
	movl $24, %edx
	cmpl %edx, %eax
	sete %al
	movb %al, %al
	cmpb $0, %al
	jz .L19_elseif_23
.loc 3 153 9
	leaq .str_38(%rip), %rax
	leave
.cfi_def_cfa 7, 8
	ret
	jmp .L19_end
.L19_elseif_23:
	movl 16(%rbp), %eax
	movl $25, %edx
	cmpl %edx, %eax
	sete %al
	movb %al, %al
	cmpb $0, %al
	jz .L19_elseif_24
.loc 3 156 9
	leaq .str_39(%rip), %rax
	leave
.cfi_def_cfa 7, 8
	ret
	jmp .L19_end
.L19_elseif_24:
	movl 16(%rbp), %eax
	movl $26, %edx
	cmpl %edx, %eax
	sete %al
	movb %al, %al
	cmpb $0, %al
	jz .L19_elseif_25
.loc 3 159 9
	leaq .str_40(%rip), %rax
	leave
.cfi_def_cfa 7, 8
	ret
	jmp .L19_end
.L19_elseif_25:
	movl 16(%rbp), %eax
	movl $27, %edx
	cmpl %edx, %eax
	sete %al
	movb %al, %al
	cmpb $0, %al
	jz .L19_elseif_26
.loc 3 162 9
	leaq .str_41(%rip), %rax
	leave
.cfi_def_cfa 7, 8
	ret
	jmp .L19_end
.L19_elseif_26:
	movl 16(%rbp), %eax
	movl $28, %edx
	cmpl %edx, %eax
	sete %al
	movb %al, %al
	cmpb $0, %al
	jz .L19_elseif_27
.loc 3 165 9
	leaq .str_42(%rip), %rax
	leave
.cfi_def_cfa 7, 8
	ret
	jmp .L19_end
.L19_elseif_27:
	movl 16(%rbp), %eax
	movl $29, %edx
	cmpl %edx, %eax
	sete %al
	movb %al, %al
	cmpb $0, %al
	jz .L19_elseif_28
.loc 3 168 9
	leaq .str_43(%rip), %rax
	leave
.cfi_def_cfa 7, 8
	ret
	jmp .L19_end
.L19_elseif_28:
	movl 16(%rbp), %eax
	movl $30, %edx
	cmpl %edx, %eax
	sete %al
	movb %al, %al
	cmpb $0, %al
	jz .L19_elseif_29
.loc 3 171 9
	leaq .str_44(%rip), %rax
	leave
.cfi_def_cfa 7, 8
	ret
	jmp .L19_end
.L19_elseif_29:
	movl 16(%rbp), %eax
	movl $31, %edx
	cmpl %edx, %eax
	sete %al
	movb %al, %al
	cmpb $0, %al
	jz .L19_elseif_30
.loc 3 174 9
	leaq .str_45(%rip), %rax
	leave
.cfi_def_cfa 7, 8
	ret
	jmp .L19_end
.L19_elseif_30:
	movl 16(%rbp), %eax
	movl $32, %edx
	cmpl %edx, %eax
	sete %al
	movb %al, %al
	cmpb $0, %al
	jz .L19_elseif_31
.loc 3 177 9
	leaq .str_46(%rip), %rax
	leave
.cfi_def_cfa 7, 8
	ret
	jmp .L19_end
.L19_elseif_31:
	movl 16(%rbp), %eax
	movl $33, %edx
	cmpl %edx, %eax
	sete %al
	movb %al, %al
	cmpb $0, %al
	jz .L19_elseif_32
.loc 3 180 9
	leaq .str_47(%rip), %rax
	leave
.cfi_def_cfa 7, 8
	ret
	jmp .L19_end
.L19_elseif_32:
	movl 16(%rbp), %eax
	movl $34, %edx
	cmpl %edx, %eax
	sete %al
	movb %al, %al
	cmpb $0, %al
	jz .L19_elseif_33
.loc 3 183 9
	leaq .str_48(%rip), %rax
	leave
.cfi_def_cfa 7, 8
	ret
	jmp .L19_end
.L19_elseif_33:
	movl 16(%rbp), %eax
	movl $35, %edx
	cmpl %edx, %eax
	sete %al
	movb %al, %al
	cmpb $0, %al
	jz .L19_elseif_34
.loc 3 186 9
	leaq .str_49(%rip), %rax
	leave
.cfi_def_cfa 7, 8
	ret
	jmp .L19_end
.L19_elseif_34:
	movl 16(%rbp), %eax
	movl $36, %edx
	cmpl %edx, %eax
	sete %al
	movb %al, %al
	cmpb $0, %al
	jz .L19_elseif_35
.loc 3 189 9
	leaq .str_50(%rip), %rax
	leave
.cfi_def_cfa 7, 8
	ret
	jmp .L19_end
.L19_elseif_35:
	movl 16(%rbp), %eax
	movl $37, %edx
	cmpl %edx, %eax
	sete %al
	movb %al, %al
	cmpb $0, %al
	jz .L19_elseif_36
.loc 3 192 9
	leaq .str_51(%rip), %rax
	leave
.cfi_def_cfa 7, 8
	ret
	jmp .L19_end
.L19_elseif_36:
	movl 16(%rbp), %eax
	movl $38, %edx
	cmpl %edx, %eax
	sete %al
	movb %al, %al
	cmpb $0, %al
	jz .L19_elseif_37
.loc 3 195 9
	leaq .str_52(%rip), %rax
	leave
.cfi_def_cfa 7, 8
	ret
	jmp .L19_end
.L19_elseif_37:
	movl 16(%rbp), %eax
	movl $39, %edx
	cmpl %edx, %eax
	sete %al
	movb %al, %al
	cmpb $0, %al
	jz .L19_elseif_38
.loc 3 198 9
	leaq .str_53(%rip), %rax
	leave
.cfi_def_cfa 7, 8
	ret
	jmp .L19_end
.L19_elseif_38:
	movl 16(%rbp), %eax
	movl $40, %edx
	cmpl %edx, %eax
	sete %al
	movb %al, %al
	cmpb $0, %al
	jz .L19_elseif_39
.loc 3 201 9
	leaq .str_54(%rip), %rax
	leave
.cfi_def_cfa 7, 8
	ret
	jmp .L19_end
.L19_elseif_39:
	movl 16(%rbp), %eax
	movl $41, %edx
	cmpl %edx, %eax
	sete %al
	movb %al, %al
	cmpb $0, %al
	jz .L19_elseif_40
.loc 3 204 9
	leaq .str_55(%rip), %rax
	leave
.cfi_def_cfa 7, 8
	ret
	jmp .L19_end
.L19_elseif_40:
	movl 16(%rbp), %eax
	movl $42, %edx
	cmpl %edx, %eax
	sete %al
	movb %al, %al
	cmpb $0, %al
	jz .L19_elseif_41
.loc 3 207 9
	leaq .str_56(%rip), %rax
	leave
.cfi_def_cfa 7, 8
	ret
	jmp .L19_end
.L19_elseif_41:
	movl 16(%rbp), %eax
	movl $43, %edx
	cmpl %edx, %eax
	sete %al
	movb %al, %al
	cmpb $0, %al
	jz .L19_elseif_42
.loc 3 210 9
	leaq .str_57(%rip), %rax
	leave
.cfi_def_cfa 7, 8
	ret
	jmp .L19_end
.L19_elseif_42:
	movl 16(%rbp), %eax
	movl $44, %edx
	cmpl %edx, %eax
	sete %al
	movb %al, %al
	cmpb $0, %al
	jz .L19_elseif_43
.loc 3 213 9
	leaq .str_58(%rip), %rax
	leave
.cfi_def_cfa 7, 8
	ret
	jmp .L19_end
.L19_elseif_43:
	movl 16(%rbp), %eax
	movl $45, %edx
	cmpl %edx, %eax
	sete %al
	movb %al, %al
	cmpb $0, %al
	jz .L19_elseif_44
.loc 3 216 9
	leaq .str_59(%rip), %rax
	leave
.cfi_def_cfa 7, 8
	ret
	jmp .L19_end
.L19_elseif_44:
	movl 16(%rbp), %eax
	movl $46, %edx
	cmpl %edx, %eax
	sete %al
	movb %al, %al
	cmpb $0, %al
	jz .L19_elseif_45
.loc 3 219 9
	leaq .str_60(%rip), %rax
	leave
.cfi_def_cfa 7, 8
	ret
	jmp .L19_end
.L19_elseif_45:
	movl 16(%rbp), %eax
	movl $47, %edx
	cmpl %edx, %eax
	sete %al
	movb %al, %al
	cmpb $0, %al
	jz .L19_elseif_46
.loc 3 222 9
	leaq .str_61(%rip), %rax
	leave
.cfi_def_cfa 7, 8
	ret
	jmp .L19_end
.L19_elseif_46:
	movl 16(%rbp), %eax
	movl $48, %edx
	cmpl %edx, %eax
	sete %al
	movb %al, %al
	cmpb $0, %al
	jz .L19_elseif_47
.loc 3 225 9
	leaq .str_62(%rip), %rax
	leave
.cfi_def_cfa 7, 8
	ret
	jmp .L19_end
.L19_elseif_47:
	movl 16(%rbp), %eax
	movl $49, %edx
	cmpl %edx, %eax
	sete %al
	movb %al, %al
	cmpb $0, %al
	jz .L19_elseif_48
.loc 3 228 9
	leaq .str_63(%rip), %rax
	leave
.cfi_def_cfa 7, 8
	ret
	jmp .L19_end
.L19_elseif_48:
	movl 16(%rbp), %eax
	movl $50, %edx
	cmpl %edx, %eax
	sete %al
	movb %al, %al
	cmpb $0, %al
	jz .L19_elseif_49
.loc 3 231 9
	leaq .str_64(%rip), %rax
	leave
.cfi_def_cfa 7, 8
	ret
	jmp .L19_end
.L19_elseif_49:
	movl 16(%rbp), %eax
	movl $51, %edx
	cmpl %edx, %eax
	sete %al
	movb %al, %al
	cmpb $0, %al
	jz .L19_elseif_50
.loc 3 234 9
	leaq .str_65(%rip), %rax
	leave
.cfi_def_cfa 7, 8
	ret
	jmp .L19_end
.L19_elseif_50:
	movl 16(%rbp), %eax
	movl $52, %edx
	cmpl %edx, %eax
	sete %al
	movb %al, %al
	cmpb $0, %al
	jz .L19_elseif_51
.loc 3 237 9
	leaq .str_66(%rip), %rax
	leave
.cfi_def_cfa 7, 8
	ret
	jmp .L19_end
.L19_elseif_51:
	movl 16(%rbp), %eax
	movl $53, %edx
	cmpl %edx, %eax
	sete %al
	movb %al, %al
	cmpb $0, %al
	jz .L19_elseif_52
.loc 3 240 9
	leaq .str_67(%rip), %rax
	leave
.cfi_def_cfa 7, 8
	ret
	jmp .L19_end
.L19_elseif_52:
	movl 16(%rbp), %eax
	movl $54, %edx
	cmpl %edx, %eax
	sete %al
	movb %al, %al
	cmpb $0, %al
	jz .L19_elseif_53
.loc 3 243 9
	leaq .str_68(%rip), %rax
	leave
.cfi_def_cfa 7, 8
	ret
	jmp .L19_end
.L19_elseif_53:
	movl 16(%rbp), %eax
	movl $55, %edx
	cmpl %edx, %eax
	sete %al
	movb %al, %al
	cmpb $0, %al
	jz .L19_elseif_54
.loc 3 246 9
	leaq .str_69(%rip), %rax
	leave
.cfi_def_cfa 7, 8
	ret
	jmp .L19_end
.L19_elseif_54:
	movl 16(%rbp), %eax
	movl $56, %edx
	cmpl %edx, %eax
	sete %al
	movb %al, %al
	cmpb $0, %al
	jz .L19_elseif_55
.loc 3 249 9
	leaq .str_70(%rip), %rax
	leave
.cfi_def_cfa 7, 8
	ret
	jmp .L19_end
.L19_elseif_55:
	movl 16(%rbp), %eax
	movl $57, %edx
	cmpl %edx, %eax
	sete %al
	movb %al, %al
	cmpb $0, %al
	jz .L19_elseif_56
.loc 3 252 9
	leaq .str_71(%rip), %rax
	leave
.cfi_def_cfa 7, 8
	ret
	jmp .L19_end
.L19_elseif_56:
	movl 16(%rbp), %eax
	movl $58, %edx
	cmpl %edx, %eax
	sete %al
	movb %al, %al
	cmpb $0, %al
	jz .L19_elseif_57
.loc 3 255 9
	leaq .str_72(%rip), %rax
	leave
.cfi_def_cfa 7, 8
	ret
	jmp .L19_end
.L19_elseif_57:
	movl 16(%rbp), %eax
	movl $59, %edx
	cmpl %edx, %eax
	sete %al
	movb %al, %al
	cmpb $0, %al
	jz .L19_elseif_58
.loc 3 258 9
	leaq .str_73(%rip), %rax
	leave
.cfi_def_cfa 7, 8
	ret
	jmp .L19_end
.L19_elseif_58:
	movl 16(%rbp), %eax
	movl $60, %edx
	cmpl %edx, %eax
	sete %al
	movb %al, %al
	cmpb $0, %al
	jz .L19_elseif_59
.loc 3 261 9
	leaq .str_74(%rip), %rax
	leave
.cfi_def_cfa 7, 8
	ret
	jmp .L19_end
.L19_elseif_59:
	movl 16(%rbp), %eax
	movl $61, %edx
	cmpl %edx, %eax
	sete %al
	movb %al, %al
	cmpb $0, %al
	jz .L19_elseif_60
.loc 3 264 9
	leaq .str_75(%rip), %rax
	leave
.cfi_def_cfa 7, 8
	ret
	jmp .L19_end
.L19_elseif_60:
	movl 16(%rbp), %eax
	movl $62, %edx
	cmpl %edx, %eax
	sete %al
	movb %al, %al
	cmpb $0, %al
	jz .L19_elseif_61
.loc 3 267 9
	leaq .str_76(%rip), %rax
	leave
.cfi_def_cfa 7, 8
	ret
	jmp .L19_end
.L19_elseif_61:
	movl 16(%rbp), %eax
	movl $63, %edx
	cmpl %edx, %eax
	sete %al
	movb %al, %al
	cmpb $0, %al
	jz .L19_elseif_62
.loc 3 270 9
	leaq .str_77(%rip), %rax
	leave
.cfi_def_cfa 7, 8
	ret
	jmp .L19_end
.L19_elseif_62:
	movl 16(%rbp), %eax
	movl $64, %edx
	cmpl %edx, %eax
	sete %al
	movb %al, %al
	cmpb $0, %al
	jz .L19_end
.loc 3 273 9
	leaq .str_78(%rip), %rax
	leave
.cfi_def_cfa 7, 8
	ret
	jmp .L19_end
.L19_end:
	leave
.cfi_def_cfa 7, 8
	ret
.cfi_endproc
.loc 3 277 1
.loc 3 312 1
.globl debug_ast_node_type_name
debug_ast_node_type_name:
.cfi_startproc
	pushq %rbp
.cfi_def_cfa_offset 16
.cfi_offset 6, -16
	movq %rsp, %rbp
.cfi_def_cfa_register 6
.loc 3 313 5
	movl 16(%rbp), %eax
	movl $1, %edx
	cmpl %edx, %eax
	sete %al
	movb %al, %al
	cmpb $0, %al
	jz .L20_elseif_0
.loc 3 314 9
	leaq .str_79(%rip), %rax
	leave
.cfi_def_cfa 7, 8
	ret
	jmp .L20_end
.L20_elseif_0:
	movl 16(%rbp), %eax
	movl $2, %edx
	cmpl %edx, %eax
	sete %al
	movb %al, %al
	cmpb $0, %al
	jz .L20_elseif_1
.loc 3 317 9
	leaq .str_80(%rip), %rax
	leave
.cfi_def_cfa 7, 8
	ret
	jmp .L20_end
.L20_elseif_1:
	movl 16(%rbp), %eax
	movl $3, %edx
	cmpl %edx, %eax
	sete %al
	movb %al, %al
	cmpb $0, %al
	jz .L20_elseif_2
.loc 3 320 9
	leaq .str_81(%rip), %rax
	leave
.cfi_def_cfa 7, 8
	ret
	jmp .L20_end
.L20_elseif_2:
	movl 16(%rbp), %eax
	movl $4, %edx
	cmpl %edx, %eax
	sete %al
	movb %al, %al
	cmpb $0, %al
	jz .L20_elseif_3
.loc 3 323 9
	leaq .str_82(%rip), %rax
	leave
.cfi_def_cfa 7, 8
	ret
	jmp .L20_end
.L20_elseif_3:
	movl 16(%rbp), %eax
	movl $5, %edx
	cmpl %edx, %eax
	sete %al
	movb %al, %al
	cmpb $0, %al
	jz .L20_elseif_4
.loc 3 326 9
	leaq .str_83(%rip), %rax
	leave
.cfi_def_cfa 7, 8
	ret
	jmp .L20_end
.L20_elseif_4:
	movl 16(%rbp), %eax
	movl $6, %edx
	cmpl %edx, %eax
	sete %al
	movb %al, %al
	cmpb $0, %al
	jz .L20_elseif_5
.loc 3 329 9
	leaq .str_84(%rip), %rax
	leave
.cfi_def_cfa 7, 8
	ret
	jmp .L20_end
.L20_elseif_5:
	movl 16(%rbp), %eax
	movl $7, %edx
	cmpl %edx, %eax
	sete %al
	movb %al, %al
	cmpb $0, %al
	jz .L20_elseif_6
.loc 3 332 9
	leaq .str_85(%rip), %rax
	leave
.cfi_def_cfa 7, 8
	ret
	jmp .L20_end
.L20_elseif_6:
	movl 16(%rbp), %eax
	movl $8, %edx
	cmpl %edx, %eax
	sete %al
	movb %al, %al
	cmpb $0, %al
	jz .L20_elseif_7
.loc 3 335 9
	leaq .str_86(%rip), %rax
	leave
.cfi_def_cfa 7, 8
	ret
	jmp .L20_end
.L20_elseif_7:
	movl 16(%rbp), %eax
	movl $9, %edx
	cmpl %edx, %eax
	sete %al
	movb %al, %al
	cmpb $0, %al
	jz .L20_elseif_8
.loc 3 338 9
	leaq .str_87(%rip), %rax
	leave
.cfi_def_cfa 7, 8
	ret
	jmp .L20_end
.L20_elseif_8:
	movl 16(%rbp), %eax
	movl $10, %edx
	cmpl %edx, %eax
	sete %al
	movb %al, %al
	cmpb $0, %al
	jz .L20_elseif_9
.loc 3 341 9
	leaq .str_88(%rip), %rax
	leave
.cfi_def_cfa 7, 8
	ret
	jmp .L20_end
.L20_elseif_9:
	movl 16(%rbp), %eax
	movl $11, %edx
	cmpl %edx, %eax
	sete %al
	movb %al, %al
	cmpb $0, %al
	jz .L20_elseif_10
.loc 3 344 9
	leaq .str_89(%rip), %rax
	leave
.cfi_def_cfa 7, 8
	ret
	jmp .L20_end
.L20_elseif_10:
	movl 16(%rbp), %eax
	movl $13, %edx
	cmpl %edx, %eax
	sete %al
	movb %al, %al
	cmpb $0, %al
	jz .L20_elseif_11
.loc 3 347 9
	leaq .str_90(%rip), %rax
	leave
.cfi_def_cfa 7, 8
	ret
	jmp .L20_end
.L20_elseif_11:
	movl 16(%rbp), %eax
	movl $14, %edx
	cmpl %edx, %eax
	sete %al
	movb %al, %al
	cmpb $0, %al
	jz .L20_elseif_12
.loc 3 350 9
	leaq .str_91(%rip), %rax
	leave
.cfi_def_cfa 7, 8
	ret
	jmp .L20_end
.L20_elseif_12:
	movl 16(%rbp), %eax
	movl $12, %edx
	cmpl %edx, %eax
	sete %al
	movb %al, %al
	cmpb $0, %al
	jz .L20_elseif_13
.loc 3 353 9
	leaq .str_92(%rip), %rax
	leave
.cfi_def_cfa 7, 8
	ret
	jmp .L20_end
.L20_elseif_13:
	movl 16(%rbp), %eax
	movl $15, %edx
	cmpl %edx, %eax
	sete %al
	movb %al, %al
	cmpb $0, %al
	jz .L20_elseif_14
.loc 3 356 9
	leaq .str_93(%rip), %rax
	leave
.cfi_def_cfa 7, 8
	ret
	jmp .L20_end
.L20_elseif_14:
	movl 16(%rbp), %eax
	movl $0, %edx
	cmpl %edx, %eax
	sete %al
	movb %al, %al
	cmpb $0, %al
	jz .L20_elseif_15
.loc 3 359 9
	leaq .str_94(%rip), %rax
	leave
.cfi_def_cfa 7, 8
	ret
	jmp .L20_end
.L20_elseif_15:
	movl 16(%rbp), %eax
	movl $16, %edx
	cmpl %edx, %eax
	sete %al
	movb %al, %al
	cmpb $0, %al
	jz .L20_elseif_16
.loc 3 362 9
	leaq .str_95(%rip), %rax
	leave
.cfi_def_cfa 7, 8
	ret
	jmp .L20_end
.L20_elseif_16:
	movl 16(%rbp), %eax
	movl $17, %edx
	cmpl %edx, %eax
	sete %al
	movb %al, %al
	cmpb $0, %al
	jz .L20_elseif_17
.loc 3 365 9
	leaq .str_96(%rip), %rax
	leave
.cfi_def_cfa 7, 8
	ret
	jmp .L20_end
.L20_elseif_17:
	movl 16(%rbp), %eax
	movl $18, %edx
	cmpl %edx, %eax
	sete %al
	movb %al, %al
	cmpb $0, %al
	jz .L20_else
.loc 3 368 9
	leaq .str_97(%rip), %rax
	leave
.cfi_def_cfa 7, 8
	ret
	jmp .L20_end
.L20_else:
.loc 3 371 9
	subq $8, %rsp
	leaq .str_98(%rip), %rax
	pushq %rax
	subq $12, %rsp
	movl 16(%rbp), %eax
	subq $4, %rsp
	movl %eax, (%rsp)
	call int_to_str
	movq %rax, %rdx
	addq $4, %rsp
	addq $12, %rsp
	popq %rax
	pushq %rdx
	pushq %rax
	movq $64, %rdi
	call malloc
	movq %rax, %r15
	movq $0, %r14
	movq $64, %r13
	popq %r12
	call __append_string_to_builder
	popq %r12
	subq $8, %rsp
	call __append_string_to_builder
	addq $8, %rsp
	movq %r15, %rax
	movq %rax, %rax
	leaq .str_99(%rip), %rdx
	movq %rdx, %r12
	subq $8, %rsp
	call __append_string_to_builder
	addq $8, %rsp
	movq %r15, %rax
	movq %rax, %rax
	pushq %rax
	call warn
	addq $8, %rsp
	addq $8, %rsp
.loc 3 372 9
	leaq .str_100(%rip), %rax
	leave
.cfi_def_cfa 7, 8
	ret
	jmp .L20_end
.L20_end:
	leave
.cfi_def_cfa 7, 8
	ret
.cfi_endproc
.loc 3 376 1
.loc 3 381 1
.loc 1 3 1
.file 4 "src/lexer"
.loc 4 1 0
.loc 4 7 1
.loc 4 8 1
.loc 4 9 1
.loc 4 11 1
.loc 4 12 1
.loc 4 15 1
.globl get_curr_character
get_curr_character:
.cfi_startproc
	pushq %rbp
.cfi_def_cfa_offset 16
.cfi_offset 6, -16
	movq %rsp, %rbp
.cfi_def_cfa_register 6
.loc 4 16 5
	movl .lexer_position(%rip), %eax
	movl .text_size(%rip), %edx
	cmpl %edx, %eax
	setge %al
	movb %al, %al
	cmpb $0, %al
	jz .L24_end
.loc 4 17 9
	movb .char_102(%rip), %al
	leave
.cfi_def_cfa 7, 8
	ret
	jmp .L24_end
.L24_end:
	movq .input_text(%rip), %rax
	pushq %rax
	movl .lexer_position(%rip), %edx
	popq %rax
	leaq (%rax, %rdx, 1), %rax
	movb (%rax), %al
	leave
.cfi_def_cfa 7, 8
	ret
	leave
.cfi_def_cfa 7, 8
	ret
.cfi_endproc
.loc 4 22 1
.globl get_next_character
get_next_character:
.cfi_startproc
	pushq %rbp
.cfi_def_cfa_offset 16
.cfi_offset 6, -16
	movq %rsp, %rbp
.cfi_def_cfa_register 6
.loc 4 23 5
	movl .lexer_position(%rip), %eax
	movl $1, %edx
	addl %edx, %eax
	movl %eax, %eax
	movl .text_size(%rip), %edx
	cmpl %edx, %eax
	setge %al
	movb %al, %al
	cmpb $0, %al
	jz .L25_end
.loc 4 24 9
	movb .char_103(%rip), %al
	leave
.cfi_def_cfa 7, 8
	ret
	jmp .L25_end
.L25_end:
	movq .input_text(%rip), %rax
	pushq %rax
	movl .lexer_position(%rip), %eax
	movl $1, %edx
	addl %edx, %eax
	movl %eax, %edx
	popq %rax
	leaq (%rax, %rdx, 1), %rax
	movb (%rax), %al
	leave
.cfi_def_cfa 7, 8
	ret
	leave
.cfi_def_cfa 7, 8
	ret
.cfi_endproc
.loc 4 29 1
.globl skip_whitespace
skip_whitespace:
.cfi_startproc
	pushq %rbp
.cfi_def_cfa_offset 16
.cfi_offset 6, -16
	movq %rsp, %rbp
.cfi_def_cfa_register 6
.loc 4 30 5
.L26_while_start:
	movl .lexer_position(%rip), %eax
	movl .text_size(%rip), %edx
	cmpl %edx, %eax
	setl %al
	movb %al, %al
	pushq %rax
	movq .input_text(%rip), %rax
	pushq %rax
	movl .lexer_position(%rip), %edx
	popq %rax
	leaq (%rax, %rdx, 1), %rax
	movb (%rax), %al
	movb .char_104(%rip), %dl
	cmpb %dl, %al
	sete %al
	movb %al, %al
	pushq %rax
	movq .input_text(%rip), %rax
	pushq %rax
	movl .lexer_position(%rip), %edx
	popq %rax
	leaq (%rax, %rdx, 1), %rax
	movb (%rax), %al
	movb .char_105(%rip), %dl
	cmpb %dl, %al
	sete %al
	movb %al, %dl
	popq %rax
	orb %dl, %al
	movb %al, %al
	pushq %rax
	movq .input_text(%rip), %rax
	pushq %rax
	movl .lexer_position(%rip), %edx
	popq %rax
	leaq (%rax, %rdx, 1), %rax
	movb (%rax), %al
	movb .char_106(%rip), %dl
	cmpb %dl, %al
	sete %al
	movb %al, %dl
	popq %rax
	orb %dl, %al
	movb %al, %al
	pushq %rax
	movq .input_text(%rip), %rax
	pushq %rax
	movl .lexer_position(%rip), %edx
	popq %rax
	leaq (%rax, %rdx, 1), %rax
	movb (%rax), %al
	movb .char_107(%rip), %dl
	cmpb %dl, %al
	sete %al
	movb %al, %dl
	popq %rax
	orb %dl, %al
	movb %al, %dl
	popq %rax
	andb %dl, %al
	movb %al, %al
	cmpb $0, %al
	jz .L26_while_end
.loc 4 32 9
	leaq .lexer_position(%rip), %rax
	pushq %rax
	movl .lexer_position(%rip), %eax
	movl $1, %edx
	addl %edx, %eax
	popq %rbx
	movl %eax, (%rbx)
	jmp .L26_while_start
.L26_while_end:
	leave
.cfi_def_cfa 7, 8
	ret
.cfi_endproc
.loc 4 36 1
.globl isCharacter
isCharacter:
.cfi_startproc
	pushq %rbp
.cfi_def_cfa_offset 16
.cfi_offset 6, -16
	movq %rsp, %rbp
.cfi_def_cfa_register 6
	subq $16, %rsp
.loc 4 37 5
	call get_curr_character
	movb %al, %al
	movb %al, -1(%rbp)
	movb -1(%rbp), %al
	movb .char_108(%rip), %dl
	cmpb %dl, %al
	setge %al
	movb %al, %al
	pushq %rax
	movb -1(%rbp), %al
	movb .char_109(%rip), %dl
	cmpb %dl, %al
	setle %al
	movb %al, %dl
	popq %rax
	andb %dl, %al
	movb %al, %al
	pushq %rax
	movb -1(%rbp), %al
	movb .char_110(%rip), %dl
	cmpb %dl, %al
	setge %al
	movb %al, %al
	pushq %rax
	movb -1(%rbp), %al
	movb .char_111(%rip), %dl
	cmpb %dl, %al
	setle %al
	movb %al, %dl
	popq %rax
	andb %dl, %al
	movb %al, %dl
	popq %rax
	orb %dl, %al
	movb %al, %al
	pushq %rax
	movb -1(%rbp), %al
	movb .char_112(%rip), %dl
	cmpb %dl, %al
	sete %al
	movb %al, %dl
	popq %rax
	orb %dl, %al
	movb %al, %al
	addq $16, %rsp
	leave
.cfi_def_cfa 7, 8
	ret
	addq $16, %rsp
	leave
.cfi_def_cfa 7, 8
	ret
.cfi_endproc
.loc 4 42 1
.globl isDigit
isDigit:
.cfi_startproc
	pushq %rbp
.cfi_def_cfa_offset 16
.cfi_offset 6, -16
	movq %rsp, %rbp
.cfi_def_cfa_register 6
	subq $16, %rsp
.loc 4 43 5
	call get_curr_character
	movb %al, %al
	movb %al, -1(%rbp)
	movb -1(%rbp), %al
	movb .char_113(%rip), %dl
	cmpb %dl, %al
	setge %al
	movb %al, %al
	pushq %rax
	movb -1(%rbp), %al
	movb .char_114(%rip), %dl
	cmpb %dl, %al
	setle %al
	movb %al, %dl
	popq %rax
	andb %dl, %al
	movb %al, %al
	addq $16, %rsp
	leave
.cfi_def_cfa 7, 8
	ret
	addq $16, %rsp
	leave
.cfi_def_cfa 7, 8
	ret
.cfi_endproc
.loc 4 48 1
.globl read_string
read_string:
.cfi_startproc
	pushq %rbp
.cfi_def_cfa_offset 16
.cfi_offset 6, -16
	movq %rsp, %rbp
.cfi_def_cfa_register 6
	subq $16, %rsp
.loc 4 49 5
	movq $16, %rdi
	call malloc
	movq %rax, %rbx
	movl $0, 8(%rbx)
	movl $4, 12(%rbx)
	movq $4, %rdi
	call malloc
	movq %rax, %rdi
	movq $0, %rsi
	movq $4, %rdx
	call memset
	movq %rax, (%rbx)
	movq %rbx, %rax
	movq %rax, -8(%rbp)
.loc 4 50 5
	leaq .lexer_position(%rip), %rax
	pushq %rax
	movl .lexer_position(%rip), %eax
	movl $1, %edx
	addl %edx, %eax
	popq %rbx
	movl %eax, (%rbx)
.loc 4 51 5
	movb .char_115(%rip), %al
	movb %al, -9(%rbp)
.loc 4 52 5
	call get_curr_character
	movb %al, %al
	movb %al, -10(%rbp)
.loc 4 53 5
	subq $16, %rsp
.L27_while_start:
	movb -9(%rbp), %al
	movb .char_116(%rip), %dl
	cmpb %dl, %al
	sete %al
	movb %al, %al
	pushq %rax
	movb -10(%rbp), %al
	movb .char_117(%rip), %dl
	cmpb %dl, %al
	setne %al
	movb %al, %dl
	popq %rax
	orb %dl, %al
	movb %al, %al
	cmpb $0, %al
	jz .L27_while_end
.loc 4 54 9
	movq -8(%rbp), %rax
	pushq %rax
	movb -10(%rbp), %bl
	popq %rax
	call __append_char
	movb (%rax), %al
	addl $1, 8(%r12)
.loc 4 55 9
	leaq .lexer_position(%rip), %rax
	pushq %rax
	movl .lexer_position(%rip), %eax
	movl $1, %edx
	addl %edx, %eax
	popq %rbx
	movl %eax, (%rbx)
.loc 4 56 9
	movb -9(%rbp), %al
	movb .char_118(%rip), %dl
	cmpb %dl, %al
	sete %al
	movb %al, %al
	cmpb $0, %al
	jz .L29_else
	subq $16, %rsp
.loc 4 57 13
	leaq -9(%rbp), %rax
	pushq %rax
	movb .char_119(%rip), %al
	popq %rbx
	movb %al, (%rbx)
	jmp .L29_end
	addq $16, %rsp
.L29_else:
	subq $16, %rsp
.loc 4 60 13
	leaq -9(%rbp), %rax
	pushq %rax
	movb -10(%rbp), %al
	popq %rbx
	movb %al, (%rbx)
	jmp .L29_end
	addq $16, %rsp
.L29_end:
.loc 4 62 9
	leaq -10(%rbp), %rax
	pushq %rax
	subq $8, %rsp
	call get_curr_character
	movb %al, %al
	addq $8, %rsp
	popq %rbx
	movb %al, (%rbx)
	jmp .L27_while_start
.L27_while_end:
	addq $16, %rsp
.loc 4 65 5
	movq -8(%rbp), %rax
	pushq %rax
	movb .char_120(%rip), %bl
	popq %rax
	call __append_char
	movb (%rax), %al
	addl $1, 8(%r12)
	movq -8(%rbp), %rax
	movq (%rax), %rax
	movq %rax, %rax
	addq $16, %rsp
	leave
.cfi_def_cfa 7, 8
	ret
	addq $16, %rsp
	leave
.cfi_def_cfa 7, 8
	ret
.cfi_endproc
.loc 4 69 1
.globl read_char
read_char:
.cfi_startproc
	pushq %rbp
.cfi_def_cfa_offset 16
.cfi_offset 6, -16
	movq %rsp, %rbp
.cfi_def_cfa_register 6
	subq $16, %rsp
.loc 4 70 5
	movq $1, %rdi
	call malloc
	movq %rax, %rdi
	movq $0, %rsi
	movq $1, %rdx
	call memset
	movq %rax, %rax
	movq %rax, -8(%rbp)
.loc 4 71 5
	leaq .lexer_position(%rip), %rax
	pushq %rax
	movl .lexer_position(%rip), %eax
	movl $1, %edx
	addl %edx, %eax
	popq %rbx
	movl %eax, (%rbx)
.loc 4 72 5
	call get_curr_character
	movb %al, %al
	movb %al, -9(%rbp)
.loc 4 73 5
	movb -9(%rbp), %al
	movb .char_121(%rip), %dl
	cmpb %dl, %al
	sete %al
	movb %al, %al
	cmpb $0, %al
	jz .L31_else
	subq $16, %rsp
.loc 4 74 9
	leaq .lexer_position(%rip), %rax
	pushq %rax
	movl .lexer_position(%rip), %eax
	movl $1, %edx
	addl %edx, %eax
	popq %rbx
	movl %eax, (%rbx)
.loc 4 75 9
	call get_curr_character
	movb %al, %al
	movb %al, -10(%rbp)
.loc 4 76 9
	movb -10(%rbp), %al
	movb .char_122(%rip), %dl
	cmpb %dl, %al
	sete %al
	movb %al, %al
	cmpb $0, %al
	jz .L32_elseif_0
	subq $16, %rsp
.loc 4 77 13
	movq -8(%rbp), %rax
	movq %rax, %rax
	movq %rax, %rax
	pushq %rax
	movb .char_123(%rip), %al
	popq %rbx
	movb %al, (%rbx)
	jmp .L32_end
	addq $16, %rsp
.L32_elseif_0:
	movb -10(%rbp), %al
	movb .char_124(%rip), %dl
	cmpb %dl, %al
	sete %al
	movb %al, %al
	cmpb $0, %al
	jz .L32_elseif_1
	subq $16, %rsp
.loc 4 80 13
	movq -8(%rbp), %rax
	movq %rax, %rax
	movq %rax, %rax
	pushq %rax
	movb .char_125(%rip), %al
	popq %rbx
	movb %al, (%rbx)
	jmp .L32_end
	addq $16, %rsp
.L32_elseif_1:
	movb -10(%rbp), %al
	movb .char_126(%rip), %dl
	cmpb %dl, %al
	sete %al
	movb %al, %al
	cmpb $0, %al
	jz .L32_elseif_2
	subq $16, %rsp
.loc 4 83 13
	movq -8(%rbp), %rax
	movq %rax, %rax
	movq %rax, %rax
	pushq %rax
	movb .char_127(%rip), %al
	popq %rbx
	movb %al, (%rbx)
	jmp .L32_end
	addq $16, %rsp
.L32_elseif_2:
	movb -10(%rbp), %al
	movb .char_128(%rip), %dl
	cmpb %dl, %al
	sete %al
	movb %al, %al
	cmpb $0, %al
	jz .L32_elseif_3
	subq $16, %rsp
.loc 4 86 13
	movq -8(%rbp), %rax
	movq %rax, %rax
	movq %rax, %rax
	pushq %rax
	movb .char_129(%rip), %al
	popq %rbx
	movb %al, (%rbx)
	jmp .L32_end
	addq $16, %rsp
.L32_elseif_3:
	movb -10(%rbp), %al
	movb .char_130(%rip), %dl
	cmpb %dl, %al
	sete %al
	movb %al, %al
	cmpb $0, %al
	jz .L32_elseif_4
	subq $16, %rsp
.loc 4 89 13
	movq -8(%rbp), %rax
	movq %rax, %rax
	movq %rax, %rax
	pushq %rax
	movb .char_131(%rip), %al
	popq %rbx
	movb %al, (%rbx)
	jmp .L32_end
	addq $16, %rsp
.L32_elseif_4:
	movb -10(%rbp), %al
	movb .char_132(%rip), %dl
	cmpb %dl, %al
	sete %al
	movb %al, %al
	cmpb $0, %al
	jz .L32_elseif_5
	subq $16, %rsp
.loc 4 92 13
	movq -8(%rbp), %rax
	movq %rax, %rax
	movq %rax, %rax
	pushq %rax
	movb .char_133(%rip), %al
	popq %rbx
	movb %al, (%rbx)
	jmp .L32_end
	addq $16, %rsp
.L32_elseif_5:
	movb -10(%rbp), %al
	movb .char_134(%rip), %dl
	cmpb %dl, %al
	sete %al
	movb %al, %al
	cmpb $0, %al
	jz .L32_else
	subq $16, %rsp
.loc 4 95 13
	movq -8(%rbp), %rax
	movq %rax, %rax
	movq %rax, %rax
	pushq %rax
	movb .char_135(%rip), %al
	popq %rbx
	movb %al, (%rbx)
	jmp .L32_end
	addq $16, %rsp
.L32_else:
	subq $16, %rsp
.loc 4 98 13
	subq $12, %rsp
	movl .lexer_position(%rip), %eax
	subq $4, %rsp
	movl %eax, (%rsp)
	call print_location_of_error
	addq $4, %rsp
	addq $12, %rsp
.loc 4 99 13
	subq $8, %rsp
	leaq .str_136(%rip), %rax
	movb -10(%rbp), %dl
	pushq %rdx
	pushq %rax
	movq $64, %rdi
	call malloc
	movq %rax, %r15
	movq $0, %r14
	movq $64, %r13
	popq %r12
	call __append_string_to_builder
	popq %r12
	subq $8, %rsp
	call __append_char_to_builder
	addq $8, %rsp
	movq %r15, %rax
	movq %rax, %rax
	leaq .str_137(%rip), %rdx
	movq %rdx, %r12
	subq $8, %rsp
	call __append_string_to_builder
	addq $8, %rsp
	movq %r15, %rax
	movq %rax, %rax
	pushq %rax
	call error
	addq $8, %rsp
	addq $8, %rsp
	jmp .L32_end
	addq $16, %rsp
.L32_end:
	jmp .L31_end
	addq $16, %rsp
.L31_else:
	subq $16, %rsp
.loc 4 103 9
	movq -8(%rbp), %rax
	movq %rax, %rax
	movq %rax, %rax
	pushq %rax
	movb -9(%rbp), %al
	popq %rbx
	movb %al, (%rbx)
	jmp .L31_end
	addq $16, %rsp
.L31_end:
.loc 4 105 5
	leaq .lexer_position(%rip), %rax
	pushq %rax
	movl .lexer_position(%rip), %eax
	movl $1, %edx
	addl %edx, %eax
	popq %rbx
	movl %eax, (%rbx)
.loc 4 106 5
	call get_curr_character
	movb %al, %al
	movb .char_138(%rip), %dl
	cmpb %dl, %al
	setne %al
	movb %al, %al
	cmpb $0, %al
	jz .L36_end
	subq $16, %rsp
.loc 4 107 9
	subq $12, %rsp
	movl .lexer_position(%rip), %eax
	subq $4, %rsp
	movl %eax, (%rsp)
	call print_location_of_error
	addq $4, %rsp
	addq $12, %rsp
.loc 4 108 9
	subq $8, %rsp
	leaq .str_139(%rip), %rax
	pushq %rax
	call error
	addq $8, %rsp
	addq $8, %rsp
	jmp .L36_end
	addq $16, %rsp
.L36_end:
	movq -8(%rbp), %rax
	addq $16, %rsp
	leave
.cfi_def_cfa 7, 8
	ret
	addq $16, %rsp
	leave
.cfi_def_cfa 7, 8
	ret
.cfi_endproc
.loc 4 113 1
.globl lex_next_token
lex_next_token:
.cfi_startproc
	pushq %rbp
.cfi_def_cfa_offset 16
.cfi_offset 6, -16
	movq %rsp, %rbp
.cfi_def_cfa_register 6
.loc 4 114 5
	call skip_whitespace
.loc 4 116 5
	call get_curr_character
	movb %al, %al
	movb .char_140(%rip), %dl
	cmpb %dl, %al
	sete %al
	movb %al, %al
	pushq %rax
	subq $8, %rsp
	call get_next_character
	movb %al, %al
	addq $8, %rsp
	movb .char_141(%rip), %dl
	cmpb %dl, %al
	sete %al
	movb %al, %dl
	popq %rax
	andb %dl, %al
	movb %al, %al
	cmpb $0, %al
	jz .L37_end
.loc 4 117 9
.L38_while_start:
	call get_curr_character
	movb %al, %al
	movb .char_142(%rip), %dl
	cmpb %dl, %al
	setne %al
	movb %al, %al
	cmpb $0, %al
	jz .L38_while_end
.loc 4 118 13
	leaq .lexer_position(%rip), %rax
	pushq %rax
	movl .lexer_position(%rip), %eax
	movl $1, %edx
	addl %edx, %eax
	popq %rbx
	movl %eax, (%rbx)
	jmp .L38_while_start
.L38_while_end:
.loc 4 120 9
	subq $8, %rsp
	movq 16(%rbp), %rax
	pushq %rax
	call lex_next_token
	addq $8, %rsp
	addq $8, %rsp
.loc 4 121 9
	leave
.cfi_def_cfa 7, 8
	ret
	jmp .L37_end
.L37_end:
.loc 4 124 5
	movq 16(%rbp), %rax
	leaq 12(%rax), %rax
	pushq %rax
	movl .lexer_position(%rip), %eax
	popq %rbx
	movl %eax, (%rbx)
.loc 4 126 5
	call isCharacter
	movb %al, %al
	cmpb $0, %al
	jz .L39_elseif_0
	subq $16, %rsp
.loc 4 127 9
	movq $16, %rdi
	call malloc
	movq %rax, %rbx
	movl $0, 8(%rbx)
	movl $4, 12(%rbx)
	movq $4, %rdi
	call malloc
	movq %rax, %rdi
	movq $0, %rsi
	movq $4, %rdx
	call memset
	movq %rax, (%rbx)
	movq %rbx, %rax
	movq %rax, -8(%rbp)
.loc 4 128 9
	subq $16, %rsp
.L40_while_start:
	movl .lexer_position(%rip), %eax
	movl .text_size(%rip), %edx
	cmpl %edx, %eax
	setl %al
	movb %al, %al
	cmpb $0, %al
	jz .L40_while_end
.loc 4 129 13
	call get_curr_character
	movb %al, %al
	movb %al, -9(%rbp)
.loc 4 130 13
	call isCharacter
	movb %al, %al
	pushq %rax
	subq $8, %rsp
	call isDigit
	movb %al, %dl
	addq $8, %rsp
	popq %rax
	orb %dl, %al
	movb %al, %al
	testb %al, %al
	setz %al
	movb %al, %al
	cmpb $0, %al
	jz .L41_end
	subq $16, %rsp
.loc 4 131 17
	jmp .L40_while_end
	jmp .L41_end
	addq $16, %rsp
.L41_end:
.loc 4 133 13
	movq -8(%rbp), %rax
	pushq %rax
	movb -9(%rbp), %bl
	popq %rax
	call __append_char
	movb (%rax), %al
	addl $1, 8(%r12)
.loc 4 134 13
	leaq .lexer_position(%rip), %rax
	pushq %rax
	movl .lexer_position(%rip), %eax
	movl $1, %edx
	addl %edx, %eax
	popq %rbx
	movl %eax, (%rbx)
	jmp .L40_while_start
.L40_while_end:
	addq $16, %rsp
.loc 4 136 9
	movq -8(%rbp), %rax
	pushq %rax
	movb .char_143(%rip), %bl
	popq %rax
	call __append_char
	movb (%rax), %al
	addl $1, 8(%r12)
.loc 4 138 9
	movq -8(%rbp), %rax
	movq (%rax), %rax
	movq %rax, -16(%rbp)
.loc 4 139 9
	movq -16(%rbp), %rax
	leaq .str_144(%rip), %rdx
	movq %rax, %rdi
	movq %rdx, %rsi
	call strcmp
	cmpq $0, %rax
	sete %al
	movb %al, %al
	cmpb $0, %al
	jz .L44_elseif_0
	subq $16, %rsp
.loc 4 140 13
	movq 16(%rbp), %rax
	leaq 8(%rax), %rax
	pushq %rax
	movl $47, %eax
	popq %rbx
	movl %eax, (%rbx)
	jmp .L44_end
	addq $16, %rsp
.L44_elseif_0:
	movq -16(%rbp), %rax
	leaq .str_145(%rip), %rdx
	movq %rax, %rdi
	movq %rdx, %rsi
	call strcmp
	cmpq $0, %rax
	sete %al
	movb %al, %al
	cmpb $0, %al
	jz .L44_elseif_1
	subq $16, %rsp
.loc 4 143 13
	movq 16(%rbp), %rax
	leaq 8(%rax), %rax
	pushq %rax
	movl $46, %eax
	popq %rbx
	movl %eax, (%rbx)
	jmp .L44_end
	addq $16, %rsp
.L44_elseif_1:
	movq -16(%rbp), %rax
	leaq .str_146(%rip), %rdx
	movq %rax, %rdi
	movq %rdx, %rsi
	call strcmp
	cmpq $0, %rax
	sete %al
	movb %al, %al
	cmpb $0, %al
	jz .L44_elseif_2
	subq $16, %rsp
.loc 4 146 13
	movq 16(%rbp), %rax
	leaq 8(%rax), %rax
	pushq %rax
	movl $48, %eax
	popq %rbx
	movl %eax, (%rbx)
	jmp .L44_end
	addq $16, %rsp
.L44_elseif_2:
	movq -16(%rbp), %rax
	leaq .str_147(%rip), %rdx
	movq %rax, %rdi
	movq %rdx, %rsi
	call strcmp
	cmpq $0, %rax
	sete %al
	movb %al, %al
	cmpb $0, %al
	jz .L44_elseif_3
	subq $16, %rsp
.loc 4 149 13
	movq 16(%rbp), %rax
	leaq 8(%rax), %rax
	pushq %rax
	movl $27, %eax
	popq %rbx
	movl %eax, (%rbx)
	jmp .L44_end
	addq $16, %rsp
.L44_elseif_3:
	movq -16(%rbp), %rax
	leaq .str_148(%rip), %rdx
	movq %rax, %rdi
	movq %rdx, %rsi
	call strcmp
	cmpq $0, %rax
	sete %al
	movb %al, %al
	cmpb $0, %al
	jz .L44_elseif_4
	subq $16, %rsp
.loc 4 152 13
	movq 16(%rbp), %rax
	leaq 8(%rax), %rax
	pushq %rax
	movl $28, %eax
	popq %rbx
	movl %eax, (%rbx)
	jmp .L44_end
	addq $16, %rsp
.L44_elseif_4:
	movq -16(%rbp), %rax
	leaq .str_149(%rip), %rdx
	movq %rax, %rdi
	movq %rdx, %rsi
	call strcmp
	cmpq $0, %rax
	sete %al
	movb %al, %al
	cmpb $0, %al
	jz .L44_elseif_5
	subq $16, %rsp
.loc 4 155 13
	movq 16(%rbp), %rax
	leaq 8(%rax), %rax
	pushq %rax
	movl $29, %eax
	popq %rbx
	movl %eax, (%rbx)
	jmp .L44_end
	addq $16, %rsp
.L44_elseif_5:
	movq -16(%rbp), %rax
	leaq .str_150(%rip), %rdx
	movq %rax, %rdi
	movq %rdx, %rsi
	call strcmp
	cmpq $0, %rax
	sete %al
	movb %al, %al
	cmpb $0, %al
	jz .L44_elseif_6
	subq $16, %rsp
.loc 4 158 13
	movq 16(%rbp), %rax
	leaq 8(%rax), %rax
	pushq %rax
	movl $49, %eax
	popq %rbx
	movl %eax, (%rbx)
	jmp .L44_end
	addq $16, %rsp
.L44_elseif_6:
	movq -16(%rbp), %rax
	leaq .str_151(%rip), %rdx
	movq %rax, %rdi
	movq %rdx, %rsi
	call strcmp
	cmpq $0, %rax
	sete %al
	movb %al, %al
	cmpb $0, %al
	jz .L44_elseif_7
	subq $16, %rsp
.loc 4 161 13
	movq 16(%rbp), %rax
	leaq 8(%rax), %rax
	pushq %rax
	movl $50, %eax
	popq %rbx
	movl %eax, (%rbx)
	jmp .L44_end
	addq $16, %rsp
.L44_elseif_7:
	movq -16(%rbp), %rax
	leaq .str_152(%rip), %rdx
	movq %rax, %rdi
	movq %rdx, %rsi
	call strcmp
	cmpq $0, %rax
	sete %al
	movb %al, %al
	cmpb $0, %al
	jz .L44_elseif_8
	subq $16, %rsp
.loc 4 164 13
	movq 16(%rbp), %rax
	leaq 8(%rax), %rax
	pushq %rax
	movl $51, %eax
	popq %rbx
	movl %eax, (%rbx)
	jmp .L44_end
	addq $16, %rsp
.L44_elseif_8:
	movq -16(%rbp), %rax
	leaq .str_153(%rip), %rdx
	movq %rax, %rdi
	movq %rdx, %rsi
	call strcmp
	cmpq $0, %rax
	sete %al
	movb %al, %al
	cmpb $0, %al
	jz .L44_elseif_9
	subq $16, %rsp
.loc 4 167 13
	movq 16(%rbp), %rax
	leaq 8(%rax), %rax
	pushq %rax
	movl $53, %eax
	popq %rbx
	movl %eax, (%rbx)
	jmp .L44_end
	addq $16, %rsp
.L44_elseif_9:
	movq -16(%rbp), %rax
	leaq .str_154(%rip), %rdx
	movq %rax, %rdi
	movq %rdx, %rsi
	call strcmp
	cmpq $0, %rax
	sete %al
	movb %al, %al
	cmpb $0, %al
	jz .L44_elseif_10
	subq $16, %rsp
.loc 4 170 13
	movq 16(%rbp), %rax
	leaq 8(%rax), %rax
	pushq %rax
	movl $54, %eax
	popq %rbx
	movl %eax, (%rbx)
	jmp .L44_end
	addq $16, %rsp
.L44_elseif_10:
	movq -16(%rbp), %rax
	leaq .str_155(%rip), %rdx
	movq %rax, %rdi
	movq %rdx, %rsi
	call strcmp
	cmpq $0, %rax
	sete %al
	movb %al, %al
	cmpb $0, %al
	jz .L44_elseif_11
	subq $16, %rsp
.loc 4 173 13
	movq 16(%rbp), %rax
	leaq 8(%rax), %rax
	pushq %rax
	movl $62, %eax
	popq %rbx
	movl %eax, (%rbx)
	jmp .L44_end
	addq $16, %rsp
.L44_elseif_11:
	movq -16(%rbp), %rax
	leaq .str_156(%rip), %rdx
	movq %rax, %rdi
	movq %rdx, %rsi
	call strcmp
	cmpq $0, %rax
	sete %al
	movb %al, %al
	cmpb $0, %al
	jz .L44_elseif_12
	subq $16, %rsp
.loc 4 176 13
	movq 16(%rbp), %rax
	leaq 8(%rax), %rax
	pushq %rax
	movl $63, %eax
	popq %rbx
	movl %eax, (%rbx)
	jmp .L44_end
	addq $16, %rsp
.L44_elseif_12:
	movq -16(%rbp), %rax
	leaq .str_157(%rip), %rdx
	movq %rax, %rdi
	movq %rdx, %rsi
	call strcmp
	cmpq $0, %rax
	sete %al
	movb %al, %al
	cmpb $0, %al
	jz .L44_elseif_13
	subq $16, %rsp
.loc 4 179 13
	movq 16(%rbp), %rax
	leaq 8(%rax), %rax
	pushq %rax
	movl $52, %eax
	popq %rbx
	movl %eax, (%rbx)
	jmp .L44_end
	addq $16, %rsp
.L44_elseif_13:
	movq -16(%rbp), %rax
	leaq .str_158(%rip), %rdx
	movq %rax, %rdi
	movq %rdx, %rsi
	call strcmp
	cmpq $0, %rax
	sete %al
	movb %al, %al
	cmpb $0, %al
	jz .L44_elseif_14
	subq $16, %rsp
.loc 4 182 13
	movq 16(%rbp), %rax
	leaq 8(%rax), %rax
	pushq %rax
	movl $56, %eax
	popq %rbx
	movl %eax, (%rbx)
	jmp .L44_end
	addq $16, %rsp
.L44_elseif_14:
	movq -16(%rbp), %rax
	leaq .str_159(%rip), %rdx
	movq %rax, %rdi
	movq %rdx, %rsi
	call strcmp
	cmpq $0, %rax
	sete %al
	movb %al, %al
	cmpb $0, %al
	jz .L44_elseif_15
	subq $16, %rsp
.loc 4 185 13
	movq 16(%rbp), %rax
	leaq 8(%rax), %rax
	pushq %rax
	movl $57, %eax
	popq %rbx
	movl %eax, (%rbx)
	jmp .L44_end
	addq $16, %rsp
.L44_elseif_15:
	movq -16(%rbp), %rax
	leaq .str_160(%rip), %rdx
	movq %rax, %rdi
	movq %rdx, %rsi
	call strcmp
	cmpq $0, %rax
	sete %al
	movb %al, %al
	cmpb $0, %al
	jz .L44_elseif_16
	subq $16, %rsp
.loc 4 188 13
	movq 16(%rbp), %rax
	leaq 8(%rax), %rax
	pushq %rax
	movl $58, %eax
	popq %rbx
	movl %eax, (%rbx)
	jmp .L44_end
	addq $16, %rsp
.L44_elseif_16:
	movq -16(%rbp), %rax
	leaq .str_161(%rip), %rdx
	movq %rax, %rdi
	movq %rdx, %rsi
	call strcmp
	cmpq $0, %rax
	sete %al
	movb %al, %al
	cmpb $0, %al
	jz .L44_elseif_17
	subq $16, %rsp
.loc 4 191 13
	movq 16(%rbp), %rax
	leaq 8(%rax), %rax
	pushq %rax
	movl $59, %eax
	popq %rbx
	movl %eax, (%rbx)
	jmp .L44_end
	addq $16, %rsp
.L44_elseif_17:
	movq -16(%rbp), %rax
	leaq .str_162(%rip), %rdx
	movq %rax, %rdi
	movq %rdx, %rsi
	call strcmp
	cmpq $0, %rax
	sete %al
	movb %al, %al
	cmpb $0, %al
	jz .L44_elseif_18
	subq $16, %rsp
.loc 4 194 13
	movq 16(%rbp), %rax
	leaq 8(%rax), %rax
	pushq %rax
	movl $60, %eax
	popq %rbx
	movl %eax, (%rbx)
	jmp .L44_end
	addq $16, %rsp
.L44_elseif_18:
	movq -16(%rbp), %rax
	leaq .str_163(%rip), %rdx
	movq %rax, %rdi
	movq %rdx, %rsi
	call strcmp
	cmpq $0, %rax
	sete %al
	movb %al, %al
	cmpb $0, %al
	jz .L44_elseif_19
	subq $16, %rsp
.loc 4 197 13
	movq 16(%rbp), %rax
	leaq 8(%rax), %rax
	pushq %rax
	movl $61, %eax
	popq %rbx
	movl %eax, (%rbx)
	jmp .L44_end
	addq $16, %rsp
.L44_elseif_19:
	movq -16(%rbp), %rax
	leaq .str_164(%rip), %rdx
	movq %rax, %rdi
	movq %rdx, %rsi
	call strcmp
	cmpq $0, %rax
	sete %al
	movb %al, %al
	cmpb $0, %al
	jz .L44_elseif_20
	subq $16, %rsp
.loc 4 200 13
	movq 16(%rbp), %rax
	leaq 8(%rax), %rax
	pushq %rax
	movl $19, %eax
	popq %rbx
	movl %eax, (%rbx)
	jmp .L44_end
	addq $16, %rsp
.L44_elseif_20:
	movq -16(%rbp), %rax
	leaq .str_165(%rip), %rdx
	movq %rax, %rdi
	movq %rdx, %rsi
	call strcmp
	cmpq $0, %rax
	sete %al
	movb %al, %al
	cmpb $0, %al
	jz .L44_elseif_21
	subq $16, %rsp
.loc 4 203 13
	movq 16(%rbp), %rax
	leaq 8(%rax), %rax
	pushq %rax
	movl $30, %eax
	popq %rbx
	movl %eax, (%rbx)
	jmp .L44_end
	addq $16, %rsp
.L44_elseif_21:
	movq -16(%rbp), %rax
	leaq .str_166(%rip), %rdx
	movq %rax, %rdi
	movq %rdx, %rsi
	call strcmp
	cmpq $0, %rax
	sete %al
	movb %al, %al
	cmpb $0, %al
	jz .L44_elseif_22
	subq $16, %rsp
.loc 4 206 13
	movq 16(%rbp), %rax
	leaq 8(%rax), %rax
	pushq %rax
	movl $31, %eax
	popq %rbx
	movl %eax, (%rbx)
	jmp .L44_end
	addq $16, %rsp
.L44_elseif_22:
	movq -16(%rbp), %rax
	leaq .str_167(%rip), %rdx
	movq %rax, %rdi
	movq %rdx, %rsi
	call strcmp
	cmpq $0, %rax
	sete %al
	movb %al, %al
	cmpb $0, %al
	jz .L44_else
	subq $16, %rsp
.loc 4 209 13
	movq 16(%rbp), %rax
	leaq 8(%rax), %rax
	pushq %rax
	movl $55, %eax
	popq %rbx
	movl %eax, (%rbx)
	jmp .L44_end
	addq $16, %rsp
.L44_else:
	subq $16, %rsp
.loc 4 212 13
	movq 16(%rbp), %rax
	leaq 8(%rax), %rax
	pushq %rax
	movl $0, %eax
	popq %rbx
	movl %eax, (%rbx)
.loc 4 213 13
	movq 16(%rbp), %rax
	leaq (%rax), %rax
	pushq %rax
	movq -16(%rbp), %rax
	popq %rbx
	movq %rax, (%rbx)
	jmp .L44_end
	addq $16, %rsp
.L44_end:
.loc 4 216 9
	movq 16(%rbp), %rax
	movl 8(%rax), %eax
	movl $0, %edx
	cmpl %edx, %eax
	setne %al
	movb %al, %al
	cmpb $0, %al
	jz .L45_end
	subq $16, %rsp
.loc 4 217 13
	movq -8(%rbp), %rax
	movq %rax, %rbx
	movq (%rax), %rdi
	call free
	movq %rbx, %rdi
	call free
	jmp .L45_end
	addq $16, %rsp
.L45_end:
	jmp .L39_end
	addq $16, %rsp
.L39_elseif_0:
	call isDigit
	movb %al, %al
	cmpb $0, %al
	jz .L39_else
	subq $16, %rsp
.loc 4 221 9
	movq $4, %rdi
	call malloc
	movq %rax, %rdi
	movq $0, %rsi
	movq $4, %rdx
	call memset
	movq %rax, %rax
	movq %rax, -8(%rbp)
.loc 4 222 9
	movq -8(%rbp), %rax
	movq %rax, %rax
	movq %rax, %rax
	pushq %rax
	movl $0, %eax
	popq %rbx
	movl %eax, (%rbx)
.loc 4 223 9
	subq $16, %rsp
.L46_while_start:
	movl .lexer_position(%rip), %eax
	movl .text_size(%rip), %edx
	cmpl %edx, %eax
	setl %al
	movb %al, %al
	cmpb $0, %al
	jz .L46_while_end
.loc 4 224 13
	call get_curr_character
	movb %al, %al
	movb %al, -9(%rbp)
.loc 4 225 13
	call isDigit
	movb %al, %al
	testb %al, %al
	setz %al
	movb %al, %al
	cmpb $0, %al
	jz .L47_end
	subq $16, %rsp
.loc 4 226 17
	jmp .L46_while_end
	jmp .L47_end
	addq $16, %rsp
.L47_end:
.loc 4 229 13
	movb -9(%rbp), %al
	movb .char_168(%rip), %dl
	subb %dl, %al
	movb %al, -10(%rbp)
.loc 4 230 13
	movq -8(%rbp), %rax
	movq %rax, %rax
	movq %rax, %rax
	pushq %rax
	movq -8(%rbp), %rax
	movl (%rax), %eax
	movl %eax, %eax
	movl $10, %edx
	imull %edx, %eax
	movl %eax, %eax
	movb -10(%rbp), %dl
	movsbl %dl, %edx
	addl %edx, %eax
	popq %rbx
	movl %eax, (%rbx)
.loc 4 231 13
	leaq .lexer_position(%rip), %rax
	pushq %rax
	movl .lexer_position(%rip), %eax
	movl $1, %edx
	addl %edx, %eax
	popq %rbx
	movl %eax, (%rbx)
	jmp .L46_while_start
.L46_while_end:
	addq $16, %rsp
.loc 4 233 9
	movq 16(%rbp), %rax
	leaq 8(%rax), %rax
	pushq %rax
	movl $1, %eax
	popq %rbx
	movl %eax, (%rbx)
.loc 4 234 9
	movq 16(%rbp), %rax
	leaq (%rax), %rax
	pushq %rax
	movq -8(%rbp), %rax
	popq %rbx
	movq %rax, (%rbx)
	jmp .L39_end
	addq $16, %rsp
.L39_else:
	subq $16, %rsp
.loc 4 237 9
	call get_curr_character
	movb %al, %al
	movb %al, -1(%rbp)
.loc 4 238 9
	movb -1(%rbp), %al
	movb .char_169(%rip), %dl
	cmpb %dl, %al
	sete %al
	movb %al, %al
	cmpb $0, %al
	jz .L48_elseif_0
	subq $16, %rsp
.loc 4 239 13
	call read_string
	movq %rax, %rax
	movq %rax, -9(%rbp)
.loc 4 240 13
	movq 16(%rbp), %rax
	leaq 8(%rax), %rax
	pushq %rax
	movl $3, %eax
	popq %rbx
	movl %eax, (%rbx)
.loc 4 241 13
	movq 16(%rbp), %rax
	leaq (%rax), %rax
	pushq %rax
	movq -9(%rbp), %rax
	popq %rbx
	movq %rax, (%rbx)
	jmp .L48_end
	addq $16, %rsp
.L48_elseif_0:
	movb -1(%rbp), %al
	movb .char_170(%rip), %dl
	cmpb %dl, %al
	sete %al
	movb %al, %al
	cmpb $0, %al
	jz .L48_elseif_1
	subq $16, %rsp
.loc 4 244 13
	call read_char
	movq %rax, %rax
	movq %rax, -9(%rbp)
.loc 4 245 13
	movq 16(%rbp), %rax
	leaq 8(%rax), %rax
	pushq %rax
	movl $4, %eax
	popq %rbx
	movl %eax, (%rbx)
.loc 4 246 13
	movq 16(%rbp), %rax
	leaq (%rax), %rax
	pushq %rax
	movq -9(%rbp), %rax
	popq %rbx
	movq %rax, (%rbx)
	jmp .L48_end
	addq $16, %rsp
.L48_elseif_1:
	movb -1(%rbp), %al
	movb .char_171(%rip), %dl
	cmpb %dl, %al
	sete %al
	movb %al, %al
	cmpb $0, %al
	jz .L48_elseif_2
	subq $16, %rsp
.loc 4 249 13
	movq 16(%rbp), %rax
	leaq 8(%rax), %rax
	pushq %rax
	movl $6, %eax
	popq %rbx
	movl %eax, (%rbx)
	jmp .L48_end
	addq $16, %rsp
.L48_elseif_2:
	movb -1(%rbp), %al
	movb .char_172(%rip), %dl
	cmpb %dl, %al
	sete %al
	movb %al, %al
	cmpb $0, %al
	jz .L48_elseif_3
	subq $16, %rsp
.loc 4 252 13
	call get_next_character
	movb %al, %al
	movb %al, -2(%rbp)
.loc 4 253 13
	movb -2(%rbp), %al
	movb .char_173(%rip), %dl
	cmpb %dl, %al
	sete %al
	movb %al, %al
	cmpb $0, %al
	jz .L49_else
	subq $16, %rsp
.loc 4 254 17
	leaq .lexer_position(%rip), %rax
	pushq %rax
	movl .lexer_position(%rip), %eax
	movl $1, %edx
	addl %edx, %eax
	popq %rbx
	movl %eax, (%rbx)
.loc 4 255 17
	movq 16(%rbp), %rax
	leaq 8(%rax), %rax
	pushq %rax
	movl $20, %eax
	popq %rbx
	movl %eax, (%rbx)
	jmp .L49_end
	addq $16, %rsp
.L49_else:
	subq $16, %rsp
.loc 4 258 17
	movq 16(%rbp), %rax
	leaq 8(%rax), %rax
	pushq %rax
	movl $7, %eax
	popq %rbx
	movl %eax, (%rbx)
	jmp .L49_end
	addq $16, %rsp
.L49_end:
	jmp .L48_end
	addq $16, %rsp
.L48_elseif_3:
	movb -1(%rbp), %al
	movb .char_174(%rip), %dl
	cmpb %dl, %al
	sete %al
	movb %al, %al
	cmpb $0, %al
	jz .L48_elseif_4
	subq $16, %rsp
.loc 4 262 13
	movq 16(%rbp), %rax
	leaq 8(%rax), %rax
	pushq %rax
	movl $8, %eax
	popq %rbx
	movl %eax, (%rbx)
	jmp .L48_end
	addq $16, %rsp
.L48_elseif_4:
	movb -1(%rbp), %al
	movb .char_175(%rip), %dl
	cmpb %dl, %al
	sete %al
	movb %al, %al
	cmpb $0, %al
	jz .L48_elseif_5
	subq $16, %rsp
.loc 4 265 13
	movq 16(%rbp), %rax
	leaq 8(%rax), %rax
	pushq %rax
	movl $9, %eax
	popq %rbx
	movl %eax, (%rbx)
	jmp .L48_end
	addq $16, %rsp
.L48_elseif_5:
	movb -1(%rbp), %al
	movb .char_176(%rip), %dl
	cmpb %dl, %al
	sete %al
	movb %al, %al
	cmpb $0, %al
	jz .L48_elseif_6
	subq $16, %rsp
.loc 4 268 13
	movq 16(%rbp), %rax
	leaq 8(%rax), %rax
	pushq %rax
	movl $10, %eax
	popq %rbx
	movl %eax, (%rbx)
	jmp .L48_end
	addq $16, %rsp
.L48_elseif_6:
	movb -1(%rbp), %al
	movb .char_177(%rip), %dl
	cmpb %dl, %al
	sete %al
	movb %al, %al
	cmpb $0, %al
	jz .L48_elseif_7
	subq $16, %rsp
.loc 4 271 13
	movq 16(%rbp), %rax
	leaq 8(%rax), %rax
	pushq %rax
	movl $12, %eax
	popq %rbx
	movl %eax, (%rbx)
	jmp .L48_end
	addq $16, %rsp
.L48_elseif_7:
	movb -1(%rbp), %al
	movb .char_178(%rip), %dl
	cmpb %dl, %al
	sete %al
	movb %al, %al
	cmpb $0, %al
	jz .L48_elseif_8
	subq $16, %rsp
.loc 4 274 13
	call get_next_character
	movb %al, %al
	movb %al, -2(%rbp)
.loc 4 275 13
	movb -2(%rbp), %al
	movb .char_179(%rip), %dl
	cmpb %dl, %al
	sete %al
	movb %al, %al
	cmpb $0, %al
	jz .L50_else
	subq $16, %rsp
.loc 4 276 17
	leaq .lexer_position(%rip), %rax
	pushq %rax
	movl .lexer_position(%rip), %eax
	movl $1, %edx
	addl %edx, %eax
	popq %rbx
	movl %eax, (%rbx)
.loc 4 277 17
	movq 16(%rbp), %rax
	leaq 8(%rax), %rax
	pushq %rax
	movl $14, %eax
	popq %rbx
	movl %eax, (%rbx)
	jmp .L50_end
	addq $16, %rsp
.L50_else:
	subq $16, %rsp
.loc 4 280 17
	movq 16(%rbp), %rax
	leaq 8(%rax), %rax
	pushq %rax
	movl $13, %eax
	popq %rbx
	movl %eax, (%rbx)
	jmp .L50_end
	addq $16, %rsp
.L50_end:
	jmp .L48_end
	addq $16, %rsp
.L48_elseif_8:
	movb -1(%rbp), %al
	movb .char_180(%rip), %dl
	cmpb %dl, %al
	sete %al
	movb %al, %al
	cmpb $0, %al
	jz .L48_elseif_9
	subq $16, %rsp
.loc 4 284 13
	movq 16(%rbp), %rax
	leaq 8(%rax), %rax
	pushq %rax
	movl $21, %eax
	popq %rbx
	movl %eax, (%rbx)
	jmp .L48_end
	addq $16, %rsp
.L48_elseif_9:
	movb -1(%rbp), %al
	movb .char_181(%rip), %dl
	cmpb %dl, %al
	sete %al
	movb %al, %al
	cmpb $0, %al
	jz .L48_elseif_10
	subq $16, %rsp
.loc 4 287 13
	movq 16(%rbp), %rax
	leaq 8(%rax), %rax
	pushq %rax
	movl $22, %eax
	popq %rbx
	movl %eax, (%rbx)
	jmp .L48_end
	addq $16, %rsp
.L48_elseif_10:
	movb -1(%rbp), %al
	movb .char_182(%rip), %dl
	cmpb %dl, %al
	sete %al
	movb %al, %al
	cmpb $0, %al
	jz .L48_elseif_11
	subq $16, %rsp
.loc 4 290 13
	movq 16(%rbp), %rax
	leaq 8(%rax), %rax
	pushq %rax
	movl $23, %eax
	popq %rbx
	movl %eax, (%rbx)
	jmp .L48_end
	addq $16, %rsp
.L48_elseif_11:
	movb -1(%rbp), %al
	movb .char_183(%rip), %dl
	cmpb %dl, %al
	sete %al
	movb %al, %al
	cmpb $0, %al
	jz .L48_elseif_12
	subq $16, %rsp
.loc 4 293 13
	movq 16(%rbp), %rax
	leaq 8(%rax), %rax
	pushq %rax
	movl $24, %eax
	popq %rbx
	movl %eax, (%rbx)
	jmp .L48_end
	addq $16, %rsp
.L48_elseif_12:
	movb -1(%rbp), %al
	movb .char_184(%rip), %dl
	cmpb %dl, %al
	sete %al
	movb %al, %al
	cmpb $0, %al
	jz .L48_elseif_13
	subq $16, %rsp
.loc 4 296 13
	movq 16(%rbp), %rax
	leaq 8(%rax), %rax
	pushq %rax
	movl $25, %eax
	popq %rbx
	movl %eax, (%rbx)
	jmp .L48_end
	addq $16, %rsp
.L48_elseif_13:
	movb -1(%rbp), %al
	movb .char_185(%rip), %dl
	cmpb %dl, %al
	sete %al
	movb %al, %al
	cmpb $0, %al
	jz .L48_elseif_14
	subq $16, %rsp
.loc 4 299 13
	movq 16(%rbp), %rax
	leaq 8(%rax), %rax
	pushq %rax
	movl $26, %eax
	popq %rbx
	movl %eax, (%rbx)
	jmp .L48_end
	addq $16, %rsp
.L48_elseif_14:
	movb -1(%rbp), %al
	movb .char_186(%rip), %dl
	cmpb %dl, %al
	sete %al
	movb %al, %al
	cmpb $0, %al
	jz .L48_elseif_15
	subq $16, %rsp
.loc 4 302 13
	movq 16(%rbp), %rax
	leaq 8(%rax), %rax
	pushq %rax
	movl $18, %eax
	popq %rbx
	movl %eax, (%rbx)
	jmp .L48_end
	addq $16, %rsp
.L48_elseif_15:
	movb -1(%rbp), %al
	movb .char_187(%rip), %dl
	cmpb %dl, %al
	sete %al
	movb %al, %al
	cmpb $0, %al
	jz .L48_elseif_16
	subq $16, %rsp
.loc 4 305 13
	call get_next_character
	movb %al, %al
	movb %al, -2(%rbp)
.loc 4 306 13
	movb -2(%rbp), %al
	movb .char_188(%rip), %dl
	cmpb %dl, %al
	sete %al
	movb %al, %al
	cmpb $0, %al
	jz .L51_elseif_0
	subq $16, %rsp
.loc 4 307 17
	movq 16(%rbp), %rax
	leaq 8(%rax), %rax
	pushq %rax
	movl $35, %eax
	popq %rbx
	movl %eax, (%rbx)
.loc 4 308 17
	leaq .lexer_position(%rip), %rax
	pushq %rax
	movl .lexer_position(%rip), %eax
	movl $1, %edx
	addl %edx, %eax
	popq %rbx
	movl %eax, (%rbx)
	jmp .L51_end
	addq $16, %rsp
.L51_elseif_0:
	movb -2(%rbp), %al
	movb .char_189(%rip), %dl
	cmpb %dl, %al
	sete %al
	movb %al, %al
	cmpb $0, %al
	jz .L51_else
	subq $16, %rsp
.loc 4 311 17
	movq 16(%rbp), %rax
	leaq 8(%rax), %rax
	pushq %rax
	movl $44, %eax
	popq %rbx
	movl %eax, (%rbx)
.loc 4 312 17
	leaq .lexer_position(%rip), %rax
	pushq %rax
	movl .lexer_position(%rip), %eax
	movl $1, %edx
	addl %edx, %eax
	popq %rbx
	movl %eax, (%rbx)
	jmp .L51_end
	addq $16, %rsp
.L51_else:
	subq $16, %rsp
.loc 4 315 17
	movq 16(%rbp), %rax
	leaq 8(%rax), %rax
	pushq %rax
	movl $34, %eax
	popq %rbx
	movl %eax, (%rbx)
	jmp .L51_end
	addq $16, %rsp
.L51_end:
	jmp .L48_end
	addq $16, %rsp
.L48_elseif_16:
	movb -1(%rbp), %al
	movb .char_190(%rip), %dl
	cmpb %dl, %al
	sete %al
	movb %al, %al
	cmpb $0, %al
	jz .L48_elseif_17
	subq $16, %rsp
.loc 4 319 13
	call get_next_character
	movb %al, %al
	movb %al, -2(%rbp)
.loc 4 320 13
	movb -2(%rbp), %al
	movb .char_191(%rip), %dl
	cmpb %dl, %al
	sete %al
	movb %al, %al
	cmpb $0, %al
	jz .L52_elseif_0
	subq $16, %rsp
.loc 4 321 17
	movq 16(%rbp), %rax
	leaq 8(%rax), %rax
	pushq %rax
	movl $37, %eax
	popq %rbx
	movl %eax, (%rbx)
.loc 4 322 17
	leaq .lexer_position(%rip), %rax
	pushq %rax
	movl .lexer_position(%rip), %eax
	movl $1, %edx
	addl %edx, %eax
	popq %rbx
	movl %eax, (%rbx)
	jmp .L52_end
	addq $16, %rsp
.L52_elseif_0:
	movb -2(%rbp), %al
	movb .char_192(%rip), %dl
	cmpb %dl, %al
	sete %al
	movb %al, %al
	cmpb $0, %al
	jz .L52_else
	subq $16, %rsp
.loc 4 325 17
	movq 16(%rbp), %rax
	leaq 8(%rax), %rax
	pushq %rax
	movl $45, %eax
	popq %rbx
	movl %eax, (%rbx)
.loc 4 326 17
	leaq .lexer_position(%rip), %rax
	pushq %rax
	movl .lexer_position(%rip), %eax
	movl $1, %edx
	addl %edx, %eax
	popq %rbx
	movl %eax, (%rbx)
	jmp .L52_end
	addq $16, %rsp
.L52_else:
	subq $16, %rsp
.loc 4 329 17
	movq 16(%rbp), %rax
	leaq 8(%rax), %rax
	pushq %rax
	movl $36, %eax
	popq %rbx
	movl %eax, (%rbx)
	jmp .L52_end
	addq $16, %rsp
.L52_end:
	jmp .L48_end
	addq $16, %rsp
.L48_elseif_17:
	movb -1(%rbp), %al
	movb .char_193(%rip), %dl
	cmpb %dl, %al
	sete %al
	movb %al, %al
	cmpb $0, %al
	jz .L48_elseif_18
	subq $16, %rsp
.loc 4 333 13
	call get_next_character
	movb %al, %al
	movb %al, -2(%rbp)
.loc 4 334 13
	movb -2(%rbp), %al
	movb .char_194(%rip), %dl
	cmpb %dl, %al
	sete %al
	movb %al, %al
	cmpb $0, %al
	jz .L53_else
	subq $16, %rsp
.loc 4 335 17
	movq 16(%rbp), %rax
	leaq 8(%rax), %rax
	pushq %rax
	movl $17, %eax
	popq %rbx
	movl %eax, (%rbx)
.loc 4 336 17
	leaq .lexer_position(%rip), %rax
	pushq %rax
	movl .lexer_position(%rip), %eax
	movl $1, %edx
	addl %edx, %eax
	popq %rbx
	movl %eax, (%rbx)
	jmp .L53_end
	addq $16, %rsp
.L53_else:
	subq $16, %rsp
.loc 4 339 17
	movq 16(%rbp), %rax
	leaq 8(%rax), %rax
	pushq %rax
	movl $16, %eax
	popq %rbx
	movl %eax, (%rbx)
	jmp .L53_end
	addq $16, %rsp
.L53_end:
	jmp .L48_end
	addq $16, %rsp
.L48_elseif_18:
	movb -1(%rbp), %al
	movb .char_195(%rip), %dl
	cmpb %dl, %al
	sete %al
	movb %al, %al
	cmpb $0, %al
	jz .L48_elseif_19
	subq $16, %rsp
.loc 4 343 13
	movq 16(%rbp), %rax
	leaq 8(%rax), %rax
	pushq %rax
	movl $15, %eax
	popq %rbx
	movl %eax, (%rbx)
	jmp .L48_end
	addq $16, %rsp
.L48_elseif_19:
	movb -1(%rbp), %al
	movb .char_196(%rip), %dl
	cmpb %dl, %al
	sete %al
	movb %al, %al
	cmpb $0, %al
	jz .L48_elseif_20
	subq $16, %rsp
.loc 4 346 13
	call get_next_character
	movb %al, %al
	movb %al, -2(%rbp)
.loc 4 347 13
	movb -2(%rbp), %al
	movb .char_197(%rip), %dl
	cmpb %dl, %al
	sete %al
	movb %al, %al
	cmpb $0, %al
	jz .L54_else
	subq $16, %rsp
.loc 4 348 17
	movq 16(%rbp), %rax
	leaq 8(%rax), %rax
	pushq %rax
	movl $32, %eax
	popq %rbx
	movl %eax, (%rbx)
.loc 4 349 17
	leaq .lexer_position(%rip), %rax
	pushq %rax
	movl .lexer_position(%rip), %eax
	movl $1, %edx
	addl %edx, %eax
	popq %rbx
	movl %eax, (%rbx)
	jmp .L54_end
	addq $16, %rsp
.L54_else:
	subq $16, %rsp
.loc 4 352 17
	movq 16(%rbp), %rax
	leaq 8(%rax), %rax
	pushq %rax
	movl $5, %eax
	popq %rbx
	movl %eax, (%rbx)
	jmp .L54_end
	addq $16, %rsp
.L54_end:
	jmp .L48_end
	addq $16, %rsp
.L48_elseif_20:
	movb -1(%rbp), %al
	movb .char_198(%rip), %dl
	cmpb %dl, %al
	sete %al
	movb %al, %al
	cmpb $0, %al
	jz .L48_elseif_21
	subq $16, %rsp
.loc 4 356 13
	call get_next_character
	movb %al, %al
	movb %al, -2(%rbp)
.loc 4 357 13
	movb -2(%rbp), %al
	movb .char_199(%rip), %dl
	cmpb %dl, %al
	sete %al
	movb %al, %al
	cmpb $0, %al
	jz .L55_else
	subq $16, %rsp
.loc 4 358 17
	movq 16(%rbp), %rax
	leaq 8(%rax), %rax
	pushq %rax
	movl $33, %eax
	popq %rbx
	movl %eax, (%rbx)
.loc 4 359 17
	leaq .lexer_position(%rip), %rax
	pushq %rax
	movl .lexer_position(%rip), %eax
	movl $1, %edx
	addl %edx, %eax
	popq %rbx
	movl %eax, (%rbx)
	jmp .L55_end
	addq $16, %rsp
.L55_else:
	subq $16, %rsp
.loc 4 362 17
	movq 16(%rbp), %rax
	leaq 8(%rax), %rax
	pushq %rax
	movl $11, %eax
	popq %rbx
	movl %eax, (%rbx)
	jmp .L55_end
	addq $16, %rsp
.L55_end:
	jmp .L48_end
	addq $16, %rsp
.L48_elseif_21:
	movb -1(%rbp), %al
	movb .char_200(%rip), %dl
	cmpb %dl, %al
	sete %al
	movb %al, %al
	cmpb $0, %al
	jz .L48_elseif_22
	subq $16, %rsp
.loc 4 366 13
	call get_next_character
	movb %al, %al
	movb %al, -2(%rbp)
.loc 4 367 13
	movb -2(%rbp), %al
	movb .char_201(%rip), %dl
	cmpb %dl, %al
	sete %al
	movb %al, %al
	cmpb $0, %al
	jz .L56_else
	subq $16, %rsp
.loc 4 368 17
	movq 16(%rbp), %rax
	leaq 8(%rax), %rax
	pushq %rax
	movl $38, %eax
	popq %rbx
	movl %eax, (%rbx)
.loc 4 369 17
	leaq .lexer_position(%rip), %rax
	pushq %rax
	movl .lexer_position(%rip), %eax
	movl $1, %edx
	addl %edx, %eax
	popq %rbx
	movl %eax, (%rbx)
	jmp .L56_end
	addq $16, %rsp
.L56_else:
	subq $16, %rsp
.loc 4 372 17
	movq 16(%rbp), %rax
	leaq 8(%rax), %rax
	pushq %rax
	movl $41, %eax
	popq %rbx
	movl %eax, (%rbx)
	jmp .L56_end
	addq $16, %rsp
.L56_end:
	jmp .L48_end
	addq $16, %rsp
.L48_elseif_22:
	movb -1(%rbp), %al
	movb .char_202(%rip), %dl
	cmpb %dl, %al
	sete %al
	movb %al, %al
	cmpb $0, %al
	jz .L48_elseif_23
	subq $16, %rsp
.loc 4 376 13
	call get_next_character
	movb %al, %al
	movb %al, -2(%rbp)
.loc 4 377 13
	movb -2(%rbp), %al
	movb .char_203(%rip), %dl
	cmpb %dl, %al
	sete %al
	movb %al, %al
	cmpb $0, %al
	jz .L57_else
	subq $16, %rsp
.loc 4 378 17
	movq 16(%rbp), %rax
	leaq 8(%rax), %rax
	pushq %rax
	movl $39, %eax
	popq %rbx
	movl %eax, (%rbx)
.loc 4 379 17
	leaq .lexer_position(%rip), %rax
	pushq %rax
	movl .lexer_position(%rip), %eax
	movl $1, %edx
	addl %edx, %eax
	popq %rbx
	movl %eax, (%rbx)
	jmp .L57_end
	addq $16, %rsp
.L57_else:
	subq $16, %rsp
.loc 4 382 17
	movq 16(%rbp), %rax
	leaq 8(%rax), %rax
	pushq %rax
	movl $42, %eax
	popq %rbx
	movl %eax, (%rbx)
	jmp .L57_end
	addq $16, %rsp
.L57_end:
	jmp .L48_end
	addq $16, %rsp
.L48_elseif_23:
	movb -1(%rbp), %al
	movb .char_204(%rip), %dl
	cmpb %dl, %al
	sete %al
	movb %al, %al
	cmpb $0, %al
	jz .L48_elseif_24
	subq $16, %rsp
.loc 4 386 13
	call get_next_character
	movb %al, %al
	movb %al, -2(%rbp)
.loc 4 387 13
	movb -2(%rbp), %al
	movb .char_205(%rip), %dl
	cmpb %dl, %al
	sete %al
	movb %al, %al
	cmpb $0, %al
	jz .L58_else
	subq $16, %rsp
.loc 4 388 17
	movq 16(%rbp), %rax
	leaq 8(%rax), %rax
	pushq %rax
	movl $40, %eax
	popq %rbx
	movl %eax, (%rbx)
.loc 4 389 17
	leaq .lexer_position(%rip), %rax
	pushq %rax
	movl .lexer_position(%rip), %eax
	movl $1, %edx
	addl %edx, %eax
	popq %rbx
	movl %eax, (%rbx)
	jmp .L58_end
	addq $16, %rsp
.L58_else:
	subq $16, %rsp
.loc 4 392 17
	movq 16(%rbp), %rax
	leaq 8(%rax), %rax
	pushq %rax
	movl $43, %eax
	popq %rbx
	movl %eax, (%rbx)
	jmp .L58_end
	addq $16, %rsp
.L58_end:
	jmp .L48_end
	addq $16, %rsp
.L48_elseif_24:
	movb -1(%rbp), %al
	movb .char_206(%rip), %dl
	cmpb %dl, %al
	sete %al
	movb %al, %al
	cmpb $0, %al
	jz .L48_else
	subq $16, %rsp
.loc 4 396 13
	movq 16(%rbp), %rax
	leaq 8(%rax), %rax
	pushq %rax
	movl $64, %eax
	popq %rbx
	movl %eax, (%rbx)
	jmp .L48_end
	addq $16, %rsp
.L48_else:
	subq $16, %rsp
.loc 4 399 13
	subq $12, %rsp
	movl .lexer_position(%rip), %eax
	subq $4, %rsp
	movl %eax, (%rsp)
	call print_location_of_error
	addq $4, %rsp
	addq $12, %rsp
.loc 4 400 13
	subq $8, %rsp
	leaq .str_207(%rip), %rax
	pushq %rax
	subq $15, %rsp
	movb -1(%rbp), %al
	subq $1, %rsp
	movb %al, (%rsp)
	call char_to_str
	movq %rax, %rdx
	addq $1, %rsp
	addq $15, %rsp
	popq %rax
	pushq %rdx
	pushq %rax
	movq $64, %rdi
	call malloc
	movq %rax, %r15
	movq $0, %r14
	movq $64, %r13
	popq %r12
	call __append_string_to_builder
	popq %r12
	subq $8, %rsp
	call __append_string_to_builder
	addq $8, %rsp
	movq %r15, %rax
	movq %rax, %rax
	leaq .str_208(%rip), %rdx
	movq %rdx, %r12
	subq $8, %rsp
	call __append_string_to_builder
	addq $8, %rsp
	movq %r15, %rax
	movq %rax, %rax
	pushq %rax
	call error
	addq $8, %rsp
	addq $8, %rsp
	jmp .L48_end
	addq $16, %rsp
.L48_end:
.loc 4 403 9
	leaq .lexer_position(%rip), %rax
	pushq %rax
	movl .lexer_position(%rip), %eax
	movl $1, %edx
	addl %edx, %eax
	popq %rbx
	movl %eax, (%rbx)
	jmp .L39_end
	addq $16, %rsp
.L39_end:
	leave
.cfi_def_cfa 7, 8
	ret
.cfi_endproc
.loc 4 407 1
.globl lex_all_tokens
lex_all_tokens:
.cfi_startproc
	pushq %rbp
.cfi_def_cfa_offset 16
.cfi_offset 6, -16
	movq %rsp, %rbp
.cfi_def_cfa_register 6
	subq $16, %rsp
.loc 4 408 5
	movq $16, %rdi
	call malloc
	movq %rax, %rbx
	movl $0, 8(%rbx)
	movl $4, 12(%rbx)
	movq $32, %rdi
	call malloc
	movq %rax, %rdi
	movq $0, %rsi
	movq $32, %rdx
	call memset
	movq %rax, (%rbx)
	movq %rbx, %rax
	movq %rax, -8(%rbp)
.loc 4 409 5
	subq $16, %rsp
.L62_while_start:
	movl .lexer_position(%rip), %eax
	movl .text_size(%rip), %edx
	cmpl %edx, %eax
	setl %al
	movb %al, %al
	cmpb $0, %al
	jz .L62_while_end
.loc 4 410 9
	movq $16, %rdi
	call malloc
	movq %rax, %rdi
	movq $0, %rsi
	movq $16, %rdx
	call memset
	movq %rax, %rax
	movq %rax, -16(%rbp)
.loc 4 411 9
	subq $8, %rsp
	movq -16(%rbp), %rax
	pushq %rax
	call lex_next_token
	addq $8, %rsp
	addq $8, %rsp
.loc 4 412 9
	movq -8(%rbp), %rax
	pushq %rax
	movq -16(%rbp), %rbx
	popq %rax
	call __append_quad
	movq (%rax), %rax
	addl $1, 8(%r12)
	jmp .L62_while_start
.L62_while_end:
	addq $16, %rsp
	movq -8(%rbp), %rax
	addq $16, %rsp
	leave
.cfi_def_cfa 7, 8
	ret
	addq $16, %rsp
	leave
.cfi_def_cfa 7, 8
	ret
.cfi_endproc
.loc 4 417 1
.loc 4 418 1
.globl get_literal_index
get_literal_index:
.cfi_startproc
	pushq %rbp
.cfi_def_cfa_offset 16
.cfi_offset 6, -16
	movq %rsp, %rbp
.cfi_def_cfa_register 6
.loc 4 419 5
	leaq .literal_index(%rip), %rax
	pushq %rax
	movl .literal_index(%rip), %eax
	movl $1, %edx
	addl %edx, %eax
	popq %rbx
	movl %eax, (%rbx)
	movl .literal_index(%rip), %eax
	leave
.cfi_def_cfa 7, 8
	ret
	leave
.cfi_def_cfa 7, 8
	ret
.cfi_endproc
.loc 4 423 1
.globl unconsume_token
unconsume_token:
.cfi_startproc
	pushq %rbp
.cfi_def_cfa_offset 16
.cfi_offset 6, -16
	movq %rsp, %rbp
.cfi_def_cfa_register 6
.loc 4 424 5
	leaq .token_index(%rip), %rax
	pushq %rax
	movl .token_index(%rip), %eax
	movl $1, %edx
	subl %edx, %eax
	popq %rbx
	movl %eax, (%rbx)
	leave
.cfi_def_cfa 7, 8
	ret
.cfi_endproc
.loc 4 427 1
.globl consume_next_token
consume_next_token:
.cfi_startproc
	pushq %rbp
.cfi_def_cfa_offset 16
.cfi_offset 6, -16
	movq %rsp, %rbp
.cfi_def_cfa_register 6
.loc 4 428 5
	leaq .token_index(%rip), %rax
	pushq %rax
	movl .token_index(%rip), %eax
	movl $1, %edx
	addl %edx, %eax
	popq %rbx
	movl %eax, (%rbx)
	leave
.cfi_def_cfa 7, 8
	ret
.cfi_endproc
.loc 4 431 1
.globl get_next_token
get_next_token:
.cfi_startproc
	pushq %rbp
.cfi_def_cfa_offset 16
.cfi_offset 6, -16
	movq %rsp, %rbp
.cfi_def_cfa_register 6
.loc 4 432 5
	movl .token_index(%rip), %eax
	movl .token_count(%rip), %edx
	cmpl %edx, %eax
	setge %al
	movb %al, %al
	cmpb $0, %al
	jz .L64_end
.loc 4 433 9
	movl $0, %eax
	movslq %eax, %rax
	leave
.cfi_def_cfa 7, 8
	ret
	jmp .L64_end
.L64_end:
.loc 4 435 5
	leaq .token_index(%rip), %rax
	pushq %rax
	movl .token_index(%rip), %eax
	movl $1, %edx
	addl %edx, %eax
	popq %rbx
	movl %eax, (%rbx)
	movq .tokens(%rip), %rax
	movq (%rax), %rax
	pushq %rax
	movl .token_index(%rip), %eax
	movl $1, %edx
	subl %edx, %eax
	movl %eax, %edx
	popq %rax
	leaq (%rax, %rdx, 8), %rax
	movq (%rax), %rax
	leave
.cfi_def_cfa 7, 8
	ret
	leave
.cfi_def_cfa 7, 8
	ret
.cfi_endproc
.loc 4 439 1
.globl peek_next_token
peek_next_token:
.cfi_startproc
	pushq %rbp
.cfi_def_cfa_offset 16
.cfi_offset 6, -16
	movq %rsp, %rbp
.cfi_def_cfa_register 6
.loc 4 440 5
	movl .token_index(%rip), %eax
	movl .token_count(%rip), %edx
	cmpl %edx, %eax
	setge %al
	movb %al, %al
	cmpb $0, %al
	jz .L65_end
.loc 4 441 9
	movl $0, %eax
	movslq %eax, %rax
	leave
.cfi_def_cfa 7, 8
	ret
	jmp .L65_end
.L65_end:
	movq .tokens(%rip), %rax
	movq (%rax), %rax
	pushq %rax
	movl .token_index(%rip), %edx
	popq %rax
	leaq (%rax, %rdx, 8), %rax
	movq (%rax), %rax
	leave
.cfi_def_cfa 7, 8
	ret
	leave
.cfi_def_cfa 7, 8
	ret
.cfi_endproc
.loc 4 446 1
.globl expect_token
expect_token:
.cfi_startproc
	pushq %rbp
.cfi_def_cfa_offset 16
.cfi_offset 6, -16
	movq %rsp, %rbp
.cfi_def_cfa_register 6
	subq $16, %rsp
.loc 4 447 5
	call get_next_token
	movq %rax, %rax
	movq %rax, -8(%rbp)
.loc 4 448 5
	movq -8(%rbp), %rax
	movl 8(%rax), %eax
	movl 16(%rbp), %edx
	cmpl %edx, %eax
	setne %al
	movb %al, %al
	cmpb $0, %al
	jz .L66_end
	subq $16, %rsp
.loc 4 449 9
	subq $12, %rsp
	movq -8(%rbp), %rax
	movl 12(%rax), %eax
	subq $4, %rsp
	movl %eax, (%rsp)
	call print_location_of_error
	addq $4, %rsp
	addq $12, %rsp
.loc 4 450 9
	subq $8, %rsp
	leaq .str_209(%rip), %rax
	pushq %rax
	subq $12, %rsp
	movl 16(%rbp), %eax
	subq $4, %rsp
	movl %eax, (%rsp)
	call debug_token_value_to_str
	movq %rax, %rdx
	addq $4, %rsp
	addq $12, %rsp
	popq %rax
	pushq %rdx
	pushq %rax
	movq $64, %rdi
	call malloc
	movq %rax, %r15
	movq $0, %r14
	movq $64, %r13
	popq %r12
	call __append_string_to_builder
	popq %r12
	subq $8, %rsp
	call __append_string_to_builder
	addq $8, %rsp
	movq %r15, %rax
	movq %rax, %rax
	leaq .str_210(%rip), %rdx
	movq %rdx, %r12
	subq $8, %rsp
	call __append_string_to_builder
	addq $8, %rsp
	movq %r15, %rax
	movq %rax, %rax
	pushq %rax
	subq $12, %rsp
	movq -8(%rbp), %rax
	movl 8(%rax), %eax
	subq $4, %rsp
	movl %eax, (%rsp)
	call debug_token_value_to_str
	movq %rax, %rdx
	addq $4, %rsp
	addq $12, %rsp
	popq %rax
	pushq %rdx
	pushq %rax
	movq $64, %rdi
	call malloc
	movq %rax, %r15
	movq $0, %r14
	movq $64, %r13
	popq %r12
	call __append_string_to_builder
	popq %r12
	subq $8, %rsp
	call __append_string_to_builder
	addq $8, %rsp
	movq %r15, %rax
	movq %rax, %rax
	leaq .str_211(%rip), %rdx
	movq %rdx, %r12
	subq $8, %rsp
	call __append_string_to_builder
	addq $8, %rsp
	movq %r15, %rax
	movq %rax, %rax
	pushq %rax
	call error
	addq $8, %rsp
	addq $8, %rsp
	jmp .L66_end
	addq $16, %rsp
.L66_end:
	movq -8(%rbp), %rax
	addq $16, %rsp
	leave
.cfi_def_cfa 7, 8
	ret
	addq $16, %rsp
	leave
.cfi_def_cfa 7, 8
	ret
.cfi_endproc
.loc 1 4 1
.file 5 "src/variable"
.loc 5 1 0
.globl variable_type_from_token
variable_type_from_token:
.cfi_startproc
	pushq %rbp
.cfi_def_cfa_offset 16
.cfi_offset 6, -16
	movq %rsp, %rbp
.cfi_def_cfa_register 6
.loc 5 2 5
	movq 16(%rbp), %rax
	movl 8(%rax), %eax
	movl $56, %edx
	cmpl %edx, %eax
	sete %al
	movb %al, %al
	cmpb $0, %al
	jz .L73_elseif_0
.loc 5 3 9
	movl $1, %eax
	leave
.cfi_def_cfa 7, 8
	ret
	jmp .L73_end
.L73_elseif_0:
	movq 16(%rbp), %rax
	movl 8(%rax), %eax
	movl $57, %edx
	cmpl %edx, %eax
	sete %al
	movb %al, %al
	cmpb $0, %al
	jz .L73_elseif_1
.loc 5 6 9
	movl $2, %eax
	leave
.cfi_def_cfa 7, 8
	ret
	jmp .L73_end
.L73_elseif_1:
	movq 16(%rbp), %rax
	movl 8(%rax), %eax
	movl $58, %edx
	cmpl %edx, %eax
	sete %al
	movb %al, %al
	cmpb $0, %al
	jz .L73_elseif_2
.loc 5 9 9
	movl $3, %eax
	leave
.cfi_def_cfa 7, 8
	ret
	jmp .L73_end
.L73_elseif_2:
	movq 16(%rbp), %rax
	movl 8(%rax), %eax
	movl $59, %edx
	cmpl %edx, %eax
	sete %al
	movb %al, %al
	cmpb $0, %al
	jz .L73_elseif_3
.loc 5 12 9
	movl $4, %eax
	leave
.cfi_def_cfa 7, 8
	ret
	jmp .L73_end
.L73_elseif_3:
	movq 16(%rbp), %rax
	movl 8(%rax), %eax
	movl $60, %edx
	cmpl %edx, %eax
	sete %al
	movb %al, %al
	cmpb $0, %al
	jz .L73_elseif_4
.loc 5 15 9
	movl $5, %eax
	leave
.cfi_def_cfa 7, 8
	ret
	jmp .L73_end
.L73_elseif_4:
	movq 16(%rbp), %rax
	movl 8(%rax), %eax
	movl $61, %edx
	cmpl %edx, %eax
	sete %al
	movb %al, %al
	cmpb $0, %al
	jz .L73_else
.loc 5 18 9
	movl $8, %eax
	leave
.cfi_def_cfa 7, 8
	ret
	jmp .L73_end
.L73_else:
.loc 5 21 9
	subq $8, %rsp
	leaq .str_212(%rip), %rax
	pushq %rax
	subq $12, %rsp
	movq 16(%rbp), %rax
	movl 8(%rax), %eax
	subq $4, %rsp
	movl %eax, (%rsp)
	call int_to_str
	movq %rax, %rdx
	addq $4, %rsp
	addq $12, %rsp
	popq %rax
	pushq %rdx
	pushq %rax
	movq $64, %rdi
	call malloc
	movq %rax, %r15
	movq $0, %r14
	movq $64, %r13
	popq %r12
	call __append_string_to_builder
	popq %r12
	subq $8, %rsp
	call __append_string_to_builder
	addq $8, %rsp
	movq %r15, %rax
	movq %rax, %rax
	leaq .str_213(%rip), %rdx
	movq %rdx, %r12
	subq $8, %rsp
	call __append_string_to_builder
	addq $8, %rsp
	movq %r15, %rax
	movq %rax, %rax
	pushq %rax
	call warn
	addq $8, %rsp
	addq $8, %rsp
.loc 5 22 9
	movl $0, %eax
	leave
.cfi_def_cfa 7, 8
	ret
	jmp .L73_end
.L73_end:
	leave
.cfi_def_cfa 7, 8
	ret
.cfi_endproc
.loc 5 26 1
.loc 5 32 1
.loc 5 38 1
.loc 5 44 1
.loc 5 48 1
.loc 5 50 1
.loc 5 56 1
.loc 5 63 1
.loc 5 67 1
.loc 5 70 1
.globl is_const
is_const:
.cfi_startproc
	pushq %rbp
.cfi_def_cfa_offset 16
.cfi_offset 6, -16
	movq %rsp, %rbp
.cfi_def_cfa_register 6
	movl 16(%rbp), %eax
	pushq %rax
	movl $1, %eax
	movl $24, %edx
	movb %dl, %cl
	sall %cl, %eax
	movl %eax, %edx
	popq %rax
	andl %edx, %eax
	movl %eax, %eax
	movl $0, %edx
	cmpl %edx, %eax
	setne %al
	movb %al, %al
	leave
.cfi_def_cfa 7, 8
	ret
	leave
.cfi_def_cfa 7, 8
	ret
.cfi_endproc
.loc 5 74 1
.globl is_pointer
is_pointer:
.cfi_startproc
	pushq %rbp
.cfi_def_cfa_offset 16
.cfi_offset 6, -16
	movq %rsp, %rbp
.cfi_def_cfa_register 6
	movl 16(%rbp), %eax
	pushq %rax
	movl $1, %eax
	movl $16, %edx
	movb %dl, %cl
	sall %cl, %eax
	movl %eax, %edx
	popq %rax
	andl %edx, %eax
	movl %eax, %eax
	movl $0, %edx
	cmpl %edx, %eax
	setne %al
	movb %al, %al
	leave
.cfi_def_cfa 7, 8
	ret
	leave
.cfi_def_cfa 7, 8
	ret
.cfi_endproc
.loc 5 78 1
.globl is_array
is_array:
.cfi_startproc
	pushq %rbp
.cfi_def_cfa_offset 16
.cfi_offset 6, -16
	movq %rsp, %rbp
.cfi_def_cfa_register 6
	movl 16(%rbp), %eax
	pushq %rax
	movl $1, %eax
	movl $8, %edx
	movb %dl, %cl
	sall %cl, %eax
	movl %eax, %edx
	popq %rax
	andl %edx, %eax
	movl %eax, %eax
	movl $0, %edx
	cmpl %edx, %eax
	setne %al
	movb %al, %al
	leave
.cfi_def_cfa 7, 8
	ret
	leave
.cfi_def_cfa 7, 8
	ret
.cfi_endproc
.loc 5 82 1
.globl is_struct
is_struct:
.cfi_startproc
	pushq %rbp
.cfi_def_cfa_offset 16
.cfi_offset 6, -16
	movq %rsp, %rbp
.cfi_def_cfa_register 6
	movl 16(%rbp), %eax
	pushq %rax
	movl $1, %eax
	movl $7, %edx
	movb %dl, %cl
	sall %cl, %eax
	movl %eax, %edx
	popq %rax
	andl %edx, %eax
	movl %eax, %eax
	movl $0, %edx
	cmpl %edx, %eax
	setne %al
	movb %al, %al
	leave
.cfi_def_cfa 7, 8
	ret
	leave
.cfi_def_cfa 7, 8
	ret
.cfi_endproc
.loc 5 86 1
.globl dereference_type
dereference_type:
.cfi_startproc
	pushq %rbp
.cfi_def_cfa_offset 16
.cfi_offset 6, -16
	movq %rsp, %rbp
.cfi_def_cfa_register 6
	subq $16, %rsp
.loc 5 87 5
	movl 16(%rbp), %eax
	pushq %rax
	movl $1, %eax
	movl $8, %edx
	movb %dl, %cl
	sall %cl, %eax
	movl %eax, %eax
	movl $1, %edx
	subl %edx, %eax
	movl %eax, %edx
	popq %rax
	andl %edx, %eax
	movl %eax, -4(%rbp)
.loc 5 88 5
	leaq 16(%rbp), %rax
	pushq %rax
	movl 16(%rbp), %eax
	movl $8, %edx
	movb %dl, %cl
	sarl %cl, %eax
	popq %rbx
	movl %eax, (%rbx)
.loc 5 89 5
	movl 16(%rbp), %eax
	pushq %rax
	movl $1, %eax
	movl $8, %edx
	movb %dl, %cl
	sall %cl, %eax
	movl %eax, %eax
	movl $1, %edx
	subl %edx, %eax
	movl %eax, %edx
	popq %rax
	andl %edx, %eax
	movl %eax, -8(%rbp)
.loc 5 90 5
	leaq 16(%rbp), %rax
	pushq %rax
	movl 16(%rbp), %eax
	movl $8, %edx
	movb %dl, %cl
	sarl %cl, %eax
	popq %rbx
	movl %eax, (%rbx)
.loc 5 91 5
	movl 16(%rbp), %eax
	pushq %rax
	movl $1, %eax
	movl $8, %edx
	movb %dl, %cl
	sall %cl, %eax
	movl %eax, %eax
	movl $1, %edx
	subl %edx, %eax
	movl %eax, %edx
	popq %rax
	andl %edx, %eax
	movl %eax, -12(%rbp)
.loc 5 93 5
	movl -8(%rbp), %eax
	movl $1, %edx
	andl %edx, %eax
	movl %eax, %eax
	movl $0, %edx
	cmpl %edx, %eax
	setne %al
	movb %al, %al
	cmpb $0, %al
	jz .L77_else
	subq $16, %rsp
.loc 5 94 9
	leaq -8(%rbp), %rax
	pushq %rax
	movl -8(%rbp), %eax
	pushq %rax
	movl $1, %eax
	notl %eax
	movl %eax, %edx
	popq %rax
	andl %edx, %eax
	popq %rbx
	movl %eax, (%rbx)
.loc 5 95 9
	leaq -12(%rbp), %rax
	pushq %rax
	movl -12(%rbp), %eax
	movl $1, %edx
	orl %edx, %eax
	popq %rbx
	movl %eax, (%rbx)
	jmp .L77_end
	addq $16, %rsp
.L77_else:
	subq $16, %rsp
.loc 5 98 9
	leaq -12(%rbp), %rax
	pushq %rax
	movl -12(%rbp), %eax
	movl $1, %edx
	movb %dl, %cl
	sarl %cl, %eax
	popq %rbx
	movl %eax, (%rbx)
.loc 5 99 9
	leaq -8(%rbp), %rax
	pushq %rax
	movl -8(%rbp), %eax
	movl $1, %edx
	movb %dl, %cl
	sarl %cl, %eax
	popq %rbx
	movl %eax, (%rbx)
	jmp .L77_end
	addq $16, %rsp
.L77_end:
.loc 5 101 5
	movl -12(%rbp), %eax
	movl $16, %edx
	movb %dl, %cl
	sall %cl, %eax
	movl %eax, %eax
	pushq %rax
	movl -8(%rbp), %eax
	movl $8, %edx
	movb %dl, %cl
	sall %cl, %eax
	movl %eax, %edx
	popq %rax
	orl %edx, %eax
	movl %eax, %eax
	movl -4(%rbp), %edx
	orl %edx, %eax
	movl %eax, -16(%rbp)
	movl -16(%rbp), %eax
	addq $16, %rsp
	leave
.cfi_def_cfa 7, 8
	ret
	addq $16, %rsp
	leave
.cfi_def_cfa 7, 8
	ret
.cfi_endproc
.loc 5 105 1
.globl get_struct_with_index
get_struct_with_index:
.cfi_startproc
	pushq %rbp
.cfi_def_cfa_offset 16
.cfi_offset 6, -16
	movq %rsp, %rbp
.cfi_def_cfa_register 6
.loc 5 106 5
	movl 16(%rbp), %eax
	pushq %rax
	movq 20(%rbp), %rax
	movq (%rax), %rax
	movl 8(%rax), %edx
	popq %rax
	cmpl %edx, %eax
	setge %al
	movb %al, %al
	cmpb $0, %al
	jz .L78_end
.loc 5 107 9
	subq $8, %rsp
	leaq .str_214(%rip), %rax
	pushq %rax
	subq $12, %rsp
	movl 16(%rbp), %eax
	subq $4, %rsp
	movl %eax, (%rsp)
	call int_to_str
	movq %rax, %rdx
	addq $4, %rsp
	addq $12, %rsp
	popq %rax
	pushq %rdx
	pushq %rax
	movq $64, %rdi
	call malloc
	movq %rax, %r15
	movq $0, %r14
	movq $64, %r13
	popq %r12
	call __append_string_to_builder
	popq %r12
	subq $8, %rsp
	call __append_string_to_builder
	addq $8, %rsp
	movq %r15, %rax
	movq %rax, %rax
	leaq .str_215(%rip), %rdx
	movq %rdx, %r12
	subq $8, %rsp
	call __append_string_to_builder
	addq $8, %rsp
	movq %r15, %rax
	movq %rax, %rax
	pushq %rax
	call error
	addq $8, %rsp
	addq $8, %rsp
	jmp .L78_end
.L78_end:
	movq 20(%rbp), %rax
	movq (%rax), %rax
	movq (%rax), %rax
	pushq %rax
	movl 16(%rbp), %edx
	popq %rax
	leaq (%rax, %rdx, 8), %rax
	movq (%rax), %rax
	leave
.cfi_def_cfa 7, 8
	ret
	leave
.cfi_def_cfa 7, 8
	ret
.cfi_endproc
.loc 5 112 1
.globl debug_variable_non_pointer_type_name
debug_variable_non_pointer_type_name:
.cfi_startproc
	pushq %rbp
.cfi_def_cfa_offset 16
.cfi_offset 6, -16
	movq %rsp, %rbp
.cfi_def_cfa_register 6
.loc 5 113 5
	subq $12, %rsp
	movl 16(%rbp), %eax
	subq $4, %rsp
	movl %eax, (%rsp)
	call is_struct
	movb %al, %al
	addq $4, %rsp
	addq $12, %rsp
	cmpb $0, %al
	jz .L82_elseif_0
	subq $16, %rsp
.loc 5 114 9
	subq $4, %rsp
	movq .struct_registry(%rip), %rax
	pushq %rax
	movl 16(%rbp), %eax
	pushq %rax
	movl $1, %eax
	movl $7, %edx
	movb %dl, %cl
	sall %cl, %eax
	movl %eax, %edx
	popq %rax
	xorl %edx, %eax
	movl %eax, %eax
	subq $4, %rsp
	movl %eax, (%rsp)
	call get_struct_with_index
	movq %rax, %rax
	addq $8, %rsp
	addq $4, %rsp
	addq $4, %rsp
	movq %rax, -8(%rbp)
.loc 5 115 9
	movq -8(%rbp), %rax
	movq (%rax), %rax
	addq $16, %rsp
	leave
.cfi_def_cfa 7, 8
	ret
	jmp .L82_end
	addq $16, %rsp
.L82_elseif_0:
	movl 16(%rbp), %eax
	movl $1, %edx
	cmpl %edx, %eax
	sete %al
	movb %al, %al
	cmpb $0, %al
	jz .L82_elseif_1
.loc 5 118 9
	leaq .str_216(%rip), %rax
	leave
.cfi_def_cfa 7, 8
	ret
	jmp .L82_end
.L82_elseif_1:
	movl 16(%rbp), %eax
	movl $2, %edx
	cmpl %edx, %eax
	sete %al
	movb %al, %al
	cmpb $0, %al
	jz .L82_elseif_2
.loc 5 121 9
	leaq .str_217(%rip), %rax
	leave
.cfi_def_cfa 7, 8
	ret
	jmp .L82_end
.L82_elseif_2:
	movl 16(%rbp), %eax
	movl $3, %edx
	cmpl %edx, %eax
	sete %al
	movb %al, %al
	cmpb $0, %al
	jz .L82_elseif_3
.loc 5 124 9
	leaq .str_218(%rip), %rax
	leave
.cfi_def_cfa 7, 8
	ret
	jmp .L82_end
.L82_elseif_3:
	movl 16(%rbp), %eax
	movl $5, %edx
	cmpl %edx, %eax
	sete %al
	movb %al, %al
	cmpb $0, %al
	jz .L82_elseif_4
.loc 5 127 9
	leaq .str_219(%rip), %rax
	leave
.cfi_def_cfa 7, 8
	ret
	jmp .L82_end
.L82_elseif_4:
	movl 16(%rbp), %eax
	movl $7, %edx
	cmpl %edx, %eax
	sete %al
	movb %al, %al
	cmpb $0, %al
	jz .L82_elseif_5
.loc 5 130 9
	leaq .str_220(%rip), %rax
	leave
.cfi_def_cfa 7, 8
	ret
	jmp .L82_end
.L82_elseif_5:
	movl 16(%rbp), %eax
	movl $6, %edx
	cmpl %edx, %eax
	sete %al
	movb %al, %al
	cmpb $0, %al
	jz .L82_elseif_6
.loc 5 133 9
	leaq .str_221(%rip), %rax
	leave
.cfi_def_cfa 7, 8
	ret
	jmp .L82_end
.L82_elseif_6:
	movl 16(%rbp), %eax
	movl $4, %edx
	cmpl %edx, %eax
	sete %al
	movb %al, %al
	cmpb $0, %al
	jz .L82_elseif_7
.loc 5 136 9
	leaq .str_222(%rip), %rax
	leave
.cfi_def_cfa 7, 8
	ret
	jmp .L82_end
.L82_elseif_7:
	movl 16(%rbp), %eax
	movl $9, %edx
	cmpl %edx, %eax
	sete %al
	movb %al, %al
	cmpb $0, %al
	jz .L82_elseif_8
.loc 5 139 9
	leaq .str_223(%rip), %rax
	leave
.cfi_def_cfa 7, 8
	ret
	jmp .L82_end
.L82_elseif_8:
	movl 16(%rbp), %eax
	movl $8, %edx
	cmpl %edx, %eax
	sete %al
	movb %al, %al
	cmpb $0, %al
	jz .L82_else
.loc 5 142 9
	leaq .str_224(%rip), %rax
	leave
.cfi_def_cfa 7, 8
	ret
	jmp .L82_end
.L82_else:
.loc 5 145 9
	subq $8, %rsp
	leaq .str_225(%rip), %rax
	pushq %rax
	subq $12, %rsp
	movl 16(%rbp), %eax
	subq $4, %rsp
	movl %eax, (%rsp)
	call int_to_str
	movq %rax, %rdx
	addq $4, %rsp
	addq $12, %rsp
	popq %rax
	pushq %rdx
	pushq %rax
	movq $64, %rdi
	call malloc
	movq %rax, %r15
	movq $0, %r14
	movq $64, %r13
	popq %r12
	call __append_string_to_builder
	popq %r12
	subq $8, %rsp
	call __append_string_to_builder
	addq $8, %rsp
	movq %r15, %rax
	movq %rax, %rax
	leaq .str_226(%rip), %rdx
	movq %rdx, %r12
	subq $8, %rsp
	call __append_string_to_builder
	addq $8, %rsp
	movq %r15, %rax
	movq %rax, %rax
	pushq %rax
	call warn
	addq $8, %rsp
	addq $8, %rsp
.loc 5 146 9
	leaq .str_227(%rip), %rax
	leave
.cfi_def_cfa 7, 8
	ret
	jmp .L82_end
.L82_end:
	leave
.cfi_def_cfa 7, 8
	ret
.cfi_endproc
.loc 5 150 1
.globl debug_variable_type_name
debug_variable_type_name:
.cfi_startproc
	pushq %rbp
.cfi_def_cfa_offset 16
.cfi_offset 6, -16
	movq %rsp, %rbp
.cfi_def_cfa_register 6
.loc 5 151 5
	subq $12, %rsp
	movl 16(%rbp), %eax
	subq $4, %rsp
	movl %eax, (%rsp)
	call is_const
	movb %al, %al
	addq $4, %rsp
	addq $12, %rsp
	cmpb $0, %al
	jz .L86_end
	subq $16, %rsp
.loc 5 152 9
	movl 16(%rbp), %eax
	pushq %rax
	movl $1, %eax
	movl $24, %edx
	movb %dl, %cl
	sall %cl, %eax
	movl %eax, %edx
	popq %rax
	xorl %edx, %eax
	movl %eax, -4(%rbp)
.loc 5 153 9
	subq $12, %rsp
	movl -4(%rbp), %eax
	subq $4, %rsp
	movl %eax, (%rsp)
	call debug_variable_type_name
	movq %rax, %rax
	addq $4, %rsp
	addq $12, %rsp
	leaq .str_228(%rip), %rdx
	pushq %rdx
	pushq %rax
	movq $64, %rdi
	call malloc
	movq %rax, %r15
	movq $0, %r14
	movq $64, %r13
	popq %r12
	subq $8, %rsp
	call __append_string_to_builder
	addq $8, %rsp
	popq %r12
	call __append_string_to_builder
	movq %r15, %rax
	movq %rax, %rax
	addq $16, %rsp
	leave
.cfi_def_cfa 7, 8
	ret
	jmp .L86_end
	addq $16, %rsp
.L86_end:
.loc 5 155 5
	subq $12, %rsp
	movl 16(%rbp), %eax
	subq $4, %rsp
	movl %eax, (%rsp)
	call is_pointer
	movb %al, %al
	addq $4, %rsp
	addq $12, %rsp
	cmpb $0, %al
	jz .L89_end
	subq $16, %rsp
.loc 5 156 9
	subq $12, %rsp
	movl 16(%rbp), %eax
	subq $4, %rsp
	movl %eax, (%rsp)
	call dereference_type
	movl %eax, %eax
	addq $4, %rsp
	addq $12, %rsp
	movl %eax, -4(%rbp)
.loc 5 157 9
	subq $12, %rsp
	movl -4(%rbp), %eax
	subq $4, %rsp
	movl %eax, (%rsp)
	call debug_variable_type_name
	movq %rax, %rax
	addq $4, %rsp
	addq $12, %rsp
	leaq .str_229(%rip), %rdx
	pushq %rdx
	pushq %rax
	movq $64, %rdi
	call malloc
	movq %rax, %r15
	movq $0, %r14
	movq $64, %r13
	popq %r12
	subq $8, %rsp
	call __append_string_to_builder
	addq $8, %rsp
	popq %r12
	call __append_string_to_builder
	movq %r15, %rax
	movq %rax, %rax
	addq $16, %rsp
	leave
.cfi_def_cfa 7, 8
	ret
	jmp .L89_end
	addq $16, %rsp
.L89_end:
.loc 5 159 5
	subq $12, %rsp
	movl 16(%rbp), %eax
	subq $4, %rsp
	movl %eax, (%rsp)
	call is_array
	movb %al, %al
	addq $4, %rsp
	addq $12, %rsp
	cmpb $0, %al
	jz .L92_end
	subq $16, %rsp
.loc 5 160 9
	subq $12, %rsp
	movl 16(%rbp), %eax
	subq $4, %rsp
	movl %eax, (%rsp)
	call dereference_type
	movl %eax, %eax
	addq $4, %rsp
	subq $4, %rsp
	movl %eax, (%rsp)
	call dereference_type
	movl %eax, %eax
	addq $4, %rsp
	addq $12, %rsp
	movl %eax, -4(%rbp)
.loc 5 161 9
	subq $12, %rsp
	movl -4(%rbp), %eax
	subq $4, %rsp
	movl %eax, (%rsp)
	call debug_variable_type_name
	movq %rax, %rax
	addq $4, %rsp
	addq $12, %rsp
	leaq .str_230(%rip), %rdx
	pushq %rdx
	pushq %rax
	movq $64, %rdi
	call malloc
	movq %rax, %r15
	movq $0, %r14
	movq $64, %r13
	popq %r12
	subq $8, %rsp
	call __append_string_to_builder
	addq $8, %rsp
	popq %r12
	call __append_string_to_builder
	movq %r15, %rax
	movq %rax, %rax
	addq $16, %rsp
	leave
.cfi_def_cfa 7, 8
	ret
	jmp .L92_end
	addq $16, %rsp
.L92_end:
	subq $12, %rsp
	movl 16(%rbp), %eax
	subq $4, %rsp
	movl %eax, (%rsp)
	call debug_variable_non_pointer_type_name
	movq %rax, %rax
	addq $4, %rsp
	addq $12, %rsp
	leave
.cfi_def_cfa 7, 8
	ret
	leave
.cfi_def_cfa 7, 8
	ret
.cfi_endproc
.loc 5 169 1
.globl get_size
get_size:
.cfi_startproc
	pushq %rbp
.cfi_def_cfa_offset 16
.cfi_offset 6, -16
	movq %rsp, %rbp
.cfi_def_cfa_register 6
.loc 5 170 5
	movl 16(%rbp), %eax
	movl $9, %edx
	cmpl %edx, %eax
	sete %al
	movb %al, %al
	cmpb $0, %al
	jz .L95_end
.loc 5 171 9
	movl $0, %eax
	leave
.cfi_def_cfa 7, 8
	ret
	jmp .L95_end
.L95_end:
.loc 5 174 5
	subq $12, %rsp
	movl 16(%rbp), %eax
	subq $4, %rsp
	movl %eax, (%rsp)
	call is_const
	movb %al, %al
	addq $4, %rsp
	addq $12, %rsp
	cmpb $0, %al
	jz .L96_end
.loc 5 175 9
	subq $12, %rsp
	movl 16(%rbp), %eax
	pushq %rax
	movl $1, %eax
	movl $24, %edx
	movb %dl, %cl
	sall %cl, %eax
	movl %eax, %edx
	popq %rax
	xorl %edx, %eax
	movl %eax, %eax
	subq $4, %rsp
	movl %eax, (%rsp)
	call get_size
	movl %eax, %eax
	addq $4, %rsp
	addq $12, %rsp
	leave
.cfi_def_cfa 7, 8
	ret
	jmp .L96_end
.L96_end:
.loc 5 177 5
	subq $12, %rsp
	movl 16(%rbp), %eax
	subq $4, %rsp
	movl %eax, (%rsp)
	call is_pointer
	movb %al, %al
	addq $4, %rsp
	addq $12, %rsp
	cmpb $0, %al
	jz .L97_end
.loc 5 178 9
	movl $8, %eax
	leave
.cfi_def_cfa 7, 8
	ret
	jmp .L97_end
.L97_end:
.loc 5 180 5
	subq $12, %rsp
	movl 16(%rbp), %eax
	subq $4, %rsp
	movl %eax, (%rsp)
	call is_array
	movb %al, %al
	addq $4, %rsp
	addq $12, %rsp
	cmpb $0, %al
	jz .L98_end
.loc 5 181 9
	movl $8, %eax
	leave
.cfi_def_cfa 7, 8
	ret
	jmp .L98_end
.L98_end:
.loc 5 183 5
	subq $12, %rsp
	movl 16(%rbp), %eax
	subq $4, %rsp
	movl %eax, (%rsp)
	call is_struct
	movb %al, %al
	addq $4, %rsp
	addq $12, %rsp
	cmpb $0, %al
	jz .L99_end
	subq $16, %rsp
.loc 5 184 9
	subq $4, %rsp
	movq .struct_registry(%rip), %rax
	pushq %rax
	movl 16(%rbp), %eax
	pushq %rax
	movl $1, %eax
	movl $7, %edx
	movb %dl, %cl
	sall %cl, %eax
	movl %eax, %edx
	popq %rax
	xorl %edx, %eax
	movl %eax, %eax
	subq $4, %rsp
	movl %eax, (%rsp)
	call get_struct_with_index
	movq %rax, %rax
	addq $8, %rsp
	addq $4, %rsp
	addq $4, %rsp
	movq %rax, -8(%rbp)
.loc 5 185 9
	movq -8(%rbp), %rax
	movl 8(%rax), %eax
	addq $16, %rsp
	leave
.cfi_def_cfa 7, 8
	ret
	jmp .L99_end
	addq $16, %rsp
.L99_end:
.loc 5 188 5
	movl 16(%rbp), %eax
	movl $1, %edx
	cmpl %edx, %eax
	sete %al
	movb %al, %al
	cmpb $0, %al
	jz .L100_elseif_0
.loc 5 189 9
	movl $4, %eax
	leave
.cfi_def_cfa 7, 8
	ret
	jmp .L100_end
.L100_elseif_0:
	movl 16(%rbp), %eax
	movl $2, %edx
	cmpl %edx, %eax
	sete %al
	movb %al, %al
	cmpb $0, %al
	jz .L100_elseif_1
.loc 5 192 9
	movl $8, %eax
	leave
.cfi_def_cfa 7, 8
	ret
	jmp .L100_end
.L100_elseif_1:
	movl 16(%rbp), %eax
	movl $3, %edx
	cmpl %edx, %eax
	sete %al
	movb %al, %al
	cmpb $0, %al
	jz .L100_elseif_2
.loc 5 195 9
	movl $1, %eax
	leave
.cfi_def_cfa 7, 8
	ret
	jmp .L100_end
.L100_elseif_2:
	movl 16(%rbp), %eax
	movl $4, %edx
	cmpl %edx, %eax
	sete %al
	movb %al, %al
	cmpb $0, %al
	jz .L100_elseif_3
.loc 5 198 9
	movl $1, %eax
	leave
.cfi_def_cfa 7, 8
	ret
	jmp .L100_end
.L100_elseif_3:
	movl 16(%rbp), %eax
	movl $5, %edx
	cmpl %edx, %eax
	sete %al
	movb %al, %al
	cmpb $0, %al
	jz .L100_elseif_4
.loc 5 201 9
	movl $8, %eax
	leave
.cfi_def_cfa 7, 8
	ret
	jmp .L100_end
.L100_elseif_4:
	movl 16(%rbp), %eax
	movl $7, %edx
	cmpl %edx, %eax
	sete %al
	movb %al, %al
	cmpb $0, %al
	jz .L100_elseif_5
.loc 5 204 9
	movl $8, %eax
	leave
.cfi_def_cfa 7, 8
	ret
	jmp .L100_end
.L100_elseif_5:
	movl 16(%rbp), %eax
	movl $6, %edx
	cmpl %edx, %eax
	sete %al
	movb %al, %al
	cmpb $0, %al
	jz .L100_elseif_6
.loc 5 207 9
	movl $8, %eax
	leave
.cfi_def_cfa 7, 8
	ret
	jmp .L100_end
.L100_elseif_6:
	movl 16(%rbp), %eax
	movl $8, %edx
	cmpl %edx, %eax
	sete %al
	movb %al, %al
	cmpb $0, %al
	jz .L100_else
.loc 5 210 9
	movl $8, %eax
	leave
.cfi_def_cfa 7, 8
	ret
	jmp .L100_end
.L100_else:
.loc 5 213 9
	subq $8, %rsp
	leaq .str_231(%rip), %rax
	pushq %rax
	subq $12, %rsp
	movl 16(%rbp), %eax
	subq $4, %rsp
	movl %eax, (%rsp)
	call debug_variable_type_name
	movq %rax, %rdx
	addq $4, %rsp
	addq $12, %rsp
	popq %rax
	pushq %rdx
	pushq %rax
	movq $64, %rdi
	call malloc
	movq %rax, %r15
	movq $0, %r14
	movq $64, %r13
	popq %r12
	call __append_string_to_builder
	popq %r12
	subq $8, %rsp
	call __append_string_to_builder
	addq $8, %rsp
	movq %r15, %rax
	movq %rax, %rax
	leaq .str_232(%rip), %rdx
	movq %rdx, %r12
	subq $8, %rsp
	call __append_string_to_builder
	addq $8, %rsp
	movq %r15, %rax
	movq %rax, %rax
	pushq %rax
	subq $12, %rsp
	movl 16(%rbp), %eax
	subq $4, %rsp
	movl %eax, (%rsp)
	call int_to_str
	movq %rax, %rdx
	addq $4, %rsp
	addq $12, %rsp
	popq %rax
	pushq %rdx
	pushq %rax
	movq $64, %rdi
	call malloc
	movq %rax, %r15
	movq $0, %r14
	movq $64, %r13
	popq %r12
	call __append_string_to_builder
	popq %r12
	subq $8, %rsp
	call __append_string_to_builder
	addq $8, %rsp
	movq %r15, %rax
	movq %rax, %rax
	leaq .str_233(%rip), %rdx
	movq %rdx, %r12
	subq $8, %rsp
	call __append_string_to_builder
	addq $8, %rsp
	movq %r15, %rax
	movq %rax, %rax
	pushq %rax
	call warn
	addq $8, %rsp
	addq $8, %rsp
.loc 5 214 9
	movl $0, %eax
	leave
.cfi_def_cfa 7, 8
	ret
	jmp .L100_end
.L100_end:
	leave
.cfi_def_cfa 7, 8
	ret
.cfi_endproc
.loc 5 218 1
.globl get_word_size
get_word_size:
.cfi_startproc
	pushq %rbp
.cfi_def_cfa_offset 16
.cfi_offset 6, -16
	movq %rsp, %rbp
.cfi_def_cfa_register 6
.loc 5 219 5
	movl 16(%rbp), %eax
	movl $1, %edx
	cmpl %edx, %eax
	sete %al
	movb %al, %al
	cmpb $0, %al
	jz .L107_elseif_0
.loc 5 220 9
	movb .char_234(%rip), %al
	leave
.cfi_def_cfa 7, 8
	ret
	jmp .L107_end
.L107_elseif_0:
	movl 16(%rbp), %eax
	movl $4, %edx
	cmpl %edx, %eax
	sete %al
	movb %al, %al
	cmpb $0, %al
	jz .L107_elseif_1
.loc 5 223 9
	movb .char_235(%rip), %al
	leave
.cfi_def_cfa 7, 8
	ret
	jmp .L107_end
.L107_elseif_1:
	movl 16(%rbp), %eax
	movl $8, %edx
	cmpl %edx, %eax
	sete %al
	movb %al, %al
	cmpb $0, %al
	jz .L107_else
.loc 5 226 9
	movb .char_236(%rip), %al
	leave
.cfi_def_cfa 7, 8
	ret
	jmp .L107_end
.L107_else:
.loc 5 229 9
	subq $8, %rsp
	leaq .str_237(%rip), %rax
	pushq %rax
	subq $12, %rsp
	movl 16(%rbp), %eax
	subq $4, %rsp
	movl %eax, (%rsp)
	call int_to_str
	movq %rax, %rdx
	addq $4, %rsp
	addq $12, %rsp
	popq %rax
	pushq %rdx
	pushq %rax
	movq $64, %rdi
	call malloc
	movq %rax, %r15
	movq $0, %r14
	movq $64, %r13
	popq %r12
	call __append_string_to_builder
	popq %r12
	subq $8, %rsp
	call __append_string_to_builder
	addq $8, %rsp
	movq %r15, %rax
	movq %rax, %rax
	leaq .str_238(%rip), %rdx
	movq %rdx, %r12
	subq $8, %rsp
	call __append_string_to_builder
	addq $8, %rsp
	movq %r15, %rax
	movq %rax, %rax
	pushq %rax
	call error
	addq $8, %rsp
	addq $8, %rsp
	jmp .L107_end
.L107_end:
	leave
.cfi_def_cfa 7, 8
	ret
.cfi_endproc
.loc 5 233 1
.globl add_member
add_member:
.cfi_startproc
	pushq %rbp
.cfi_def_cfa_offset 16
.cfi_offset 6, -16
	movq %rsp, %rbp
.cfi_def_cfa_register 6
	subq $16, %rsp
.loc 5 234 5
	movq $16, %rdi
	call malloc
	movq %rax, %rdi
	movq $0, %rsi
	movq $16, %rdx
	call memset
	movq %rax, %rax
	movq %rax, -8(%rbp)
.loc 5 235 5
	movq -8(%rbp), %rax
	leaq (%rax), %rax
	pushq %rax
	movq 20(%rbp), %rax
	popq %rbx
	movq %rax, (%rbx)
.loc 5 236 5
	movq -8(%rbp), %rax
	leaq 12(%rax), %rax
	pushq %rax
	movl 16(%rbp), %eax
	popq %rbx
	movl %eax, (%rbx)
.loc 5 237 5
	movq -8(%rbp), %rax
	leaq 8(%rax), %rax
	pushq %rax
	movq 28(%rbp), %rax
	movl 8(%rax), %eax
	popq %rbx
	movl %eax, (%rbx)
.loc 5 238 5
	movq 28(%rbp), %rax
	leaq 8(%rax), %rax
	pushq %rax
	movq 28(%rbp), %rax
	movl 8(%rax), %eax
	pushq %rax
	subq $12, %rsp
	movl 16(%rbp), %eax
	subq $4, %rsp
	movl %eax, (%rsp)
	call get_size
	movl %eax, %edx
	addq $4, %rsp
	addq $12, %rsp
	popq %rax
	addl %edx, %eax
	popq %rbx
	movl %eax, (%rbx)
.loc 5 239 5
	movq 28(%rbp), %rax
	movq 16(%rax), %rax
	pushq %rax
	movq -8(%rbp), %rbx
	popq %rax
	call __append_quad
	movq (%rax), %rax
	addl $1, 8(%r12)
	addq $16, %rsp
	leave
.cfi_def_cfa 7, 8
	ret
.cfi_endproc
.loc 5 242 1
.globl get_struct_member
get_struct_member:
.cfi_startproc
	pushq %rbp
.cfi_def_cfa_offset 16
.cfi_offset 6, -16
	movq %rsp, %rbp
.cfi_def_cfa_register 6
.loc 5 243 5
	subq $16, %rsp
.loc 5 243 10
	movl $0, %eax
	movl %eax, -4(%rbp)
.L112_for_start:
	movl -4(%rbp), %eax
	pushq %rax
	movq 24(%rbp), %rax
	movq 16(%rax), %rax
	movl 8(%rax), %edx
	popq %rax
	cmpl %edx, %eax
	setl %al
	movb %al, %al
	cmpb $0, %al
	jz .L112_for_end
.loc 5 244 9
	movq 24(%rbp), %rax
	movq 16(%rax), %rax
	movq (%rax), %rax
	pushq %rax
	movl -4(%rbp), %edx
	popq %rax
	leaq (%rax, %rdx, 8), %rax
	movq (%rax), %rax
	movq (%rax), %rax
	movq 16(%rbp), %rdx
	movq %rax, %rdi
	movq %rdx, %rsi
	call strcmp
	cmpq $0, %rax
	sete %al
	movb %al, %al
	cmpb $0, %al
	jz .L113_end
	subq $16, %rsp
.loc 5 245 13
	movq 24(%rbp), %rax
	movq 16(%rax), %rax
	movq (%rax), %rax
	pushq %rax
	movl -4(%rbp), %edx
	popq %rax
	leaq (%rax, %rdx, 8), %rax
	movq (%rax), %rax
	addq $16, %rsp
	leave
.cfi_def_cfa 7, 8
	ret
	jmp .L113_end
	addq $16, %rsp
.L113_end:
.L112_for_inc:
.loc 5 243 59
	leaq -4(%rbp), %rax
	pushq %rax
	movl -4(%rbp), %eax
	movl $1, %edx
	addl %edx, %eax
	popq %rbx
	movl %eax, (%rbx)
	jmp .L112_for_start
.L112_for_end:
	addq $16, %rsp
.loc 5 248 5
	subq $8, %rsp
	leaq .str_239(%rip), %rax
	movq 16(%rbp), %rdx
	pushq %rdx
	pushq %rax
	movq $64, %rdi
	call malloc
	movq %rax, %r15
	movq $0, %r14
	movq $64, %r13
	popq %r12
	call __append_string_to_builder
	popq %r12
	subq $8, %rsp
	call __append_string_to_builder
	addq $8, %rsp
	movq %r15, %rax
	movq %rax, %rax
	leaq .str_240(%rip), %rdx
	movq %rdx, %r12
	subq $8, %rsp
	call __append_string_to_builder
	addq $8, %rsp
	movq %r15, %rax
	movq %rax, %rax
	pushq %rax
	movq 24(%rbp), %rax
	movq (%rax), %rdx
	popq %rax
	movq %rdx, %r12
	subq $8, %rsp
	call __append_string_to_builder
	addq $8, %rsp
	movq %r15, %rax
	movq %rax, %rax
	leaq .str_241(%rip), %rdx
	movq %rdx, %r12
	subq $8, %rsp
	call __append_string_to_builder
	addq $8, %rsp
	movq %r15, %rax
	movq %rax, %rax
	pushq %rax
	call error
	addq $8, %rsp
	addq $8, %rsp
	leave
.cfi_def_cfa 7, 8
	ret
.cfi_endproc
.loc 5 251 1
.globl add_struct
add_struct:
.cfi_startproc
	pushq %rbp
.cfi_def_cfa_offset 16
.cfi_offset 6, -16
	movq %rsp, %rbp
.cfi_def_cfa_register 6
	subq $16, %rsp
.loc 5 252 5
	movq $24, %rdi
	call malloc
	movq %rax, %rdi
	movq $0, %rsi
	movq $24, %rdx
	call memset
	movq %rax, %rax
	movq %rax, -8(%rbp)
.loc 5 253 5
	movq -8(%rbp), %rax
	leaq 8(%rax), %rax
	pushq %rax
	movl $0, %eax
	popq %rbx
	movl %eax, (%rbx)
.loc 5 254 5
	movq -8(%rbp), %rax
	leaq 12(%rax), %rax
	pushq %rax
	movl $1, %eax
	movl $7, %edx
	movb %dl, %cl
	sall %cl, %eax
	movl %eax, %eax
	pushq %rax
	movq 16(%rbp), %rax
	movq (%rax), %rax
	movl 8(%rax), %edx
	popq %rax
	orl %edx, %eax
	popq %rbx
	movl %eax, (%rbx)
.loc 5 255 5
	movq -8(%rbp), %rax
	leaq 16(%rax), %rax
	pushq %rax
	subq $8, %rsp
	movq $16, %rdi
	call malloc
	movq %rax, %rbx
	movl $0, 8(%rbx)
	movl $4, 12(%rbx)
	movq $32, %rdi
	call malloc
	movq %rax, %rdi
	movq $0, %rsi
	movq $32, %rdx
	call memset
	movq %rax, (%rbx)
	movq %rbx, %rax
	addq $8, %rsp
	popq %rbx
	movq %rax, (%rbx)
.loc 5 256 5
	movq 16(%rbp), %rax
	movq (%rax), %rax
	pushq %rax
	movq -8(%rbp), %rbx
	popq %rax
	call __append_quad
	movq (%rax), %rax
	addl $1, 8(%r12)
	movq -8(%rbp), %rax
	addq $16, %rsp
	leave
.cfi_def_cfa 7, 8
	ret
	addq $16, %rsp
	leave
.cfi_def_cfa 7, 8
	ret
.cfi_endproc
.loc 5 260 1
.globl get_struct
get_struct:
.cfi_startproc
	pushq %rbp
.cfi_def_cfa_offset 16
.cfi_offset 6, -16
	movq %rsp, %rbp
.cfi_def_cfa_register 6
.loc 5 261 5
	subq $16, %rsp
.loc 5 261 10
	movl $0, %eax
	movl %eax, -4(%rbp)
.L120_for_start:
	movl -4(%rbp), %eax
	pushq %rax
	movq 24(%rbp), %rax
	movq (%rax), %rax
	movl 8(%rax), %edx
	popq %rax
	cmpl %edx, %eax
	setl %al
	movb %al, %al
	cmpb $0, %al
	jz .L120_for_end
.loc 5 262 9
	movq 24(%rbp), %rax
	movq (%rax), %rax
	movq (%rax), %rax
	pushq %rax
	movl -4(%rbp), %edx
	popq %rax
	leaq (%rax, %rdx, 8), %rax
	movq (%rax), %rax
	movq (%rax), %rax
	movq 16(%rbp), %rdx
	movq %rax, %rdi
	movq %rdx, %rsi
	call strcmp
	cmpq $0, %rax
	sete %al
	movb %al, %al
	cmpb $0, %al
	jz .L121_end
	subq $16, %rsp
.loc 5 263 13
	movq 24(%rbp), %rax
	movq (%rax), %rax
	movq (%rax), %rax
	pushq %rax
	movl -4(%rbp), %edx
	popq %rax
	leaq (%rax, %rdx, 8), %rax
	movq (%rax), %rax
	addq $16, %rsp
	leave
.cfi_def_cfa 7, 8
	ret
	jmp .L121_end
	addq $16, %rsp
.L121_end:
.L120_for_inc:
.loc 5 261 61
	leaq -4(%rbp), %rax
	pushq %rax
	movl -4(%rbp), %eax
	movl $1, %edx
	addl %edx, %eax
	popq %rbx
	movl %eax, (%rbx)
	jmp .L120_for_start
.L120_for_end:
	addq $16, %rsp
.loc 5 266 5
	subq $8, %rsp
	leaq .str_242(%rip), %rax
	movq 16(%rbp), %rdx
	pushq %rdx
	pushq %rax
	movq $64, %rdi
	call malloc
	movq %rax, %r15
	movq $0, %r14
	movq $64, %r13
	popq %r12
	call __append_string_to_builder
	popq %r12
	subq $8, %rsp
	call __append_string_to_builder
	addq $8, %rsp
	movq %r15, %rax
	movq %rax, %rax
	leaq .str_243(%rip), %rdx
	movq %rdx, %r12
	subq $8, %rsp
	call __append_string_to_builder
	addq $8, %rsp
	movq %r15, %rax
	movq %rax, %rax
	pushq %rax
	call error
	addq $8, %rsp
	addq $8, %rsp
	leave
.cfi_def_cfa 7, 8
	ret
.cfi_endproc
.loc 5 271 1
.globl add_global_variable
add_global_variable:
.cfi_startproc
	pushq %rbp
.cfi_def_cfa_offset 16
.cfi_offset 6, -16
	movq %rsp, %rbp
.cfi_def_cfa_register 6
	subq $16, %rsp
.loc 5 272 5
	movq $20, %rdi
	call malloc
	movq %rax, %rdi
	movq $0, %rsi
	movq $20, %rdx
	call memset
	movq %rax, %rax
	movq %rax, -8(%rbp)
.loc 5 273 5
	movq -8(%rbp), %rax
	leaq (%rax), %rax
	pushq %rax
	movq 28(%rbp), %rax
	popq %rbx
	movq %rax, (%rbx)
.loc 5 274 5
	movq -8(%rbp), %rax
	leaq 8(%rax), %rax
	pushq %rax
	movq 20(%rbp), %rax
	popq %rbx
	movq %rax, (%rbx)
.loc 5 275 5
	movq -8(%rbp), %rax
	leaq 16(%rax), %rax
	pushq %rax
	movl 16(%rbp), %eax
	popq %rbx
	movl %eax, (%rbx)
.loc 5 277 5
	movq 36(%rbp), %rax
	movq (%rax), %rax
	pushq %rax
	movq -8(%rbp), %rbx
	popq %rax
	call __append_quad
	movq (%rax), %rax
	addl $1, 8(%r12)
	addq $16, %rsp
	leave
.cfi_def_cfa 7, 8
	ret
.cfi_endproc
.loc 5 280 1
.globl get_global_variable
get_global_variable:
.cfi_startproc
	pushq %rbp
.cfi_def_cfa_offset 16
.cfi_offset 6, -16
	movq %rsp, %rbp
.cfi_def_cfa_register 6
.loc 5 281 5
	subq $16, %rsp
.loc 5 281 10
	movl $0, %eax
	movl %eax, -4(%rbp)
.L126_for_start:
	movl -4(%rbp), %eax
	pushq %rax
	movq 24(%rbp), %rax
	movq (%rax), %rax
	movl 8(%rax), %edx
	popq %rax
	cmpl %edx, %eax
	setl %al
	movb %al, %al
	cmpb $0, %al
	jz .L126_for_end
.loc 5 282 9
	movq 24(%rbp), %rax
	movq (%rax), %rax
	movq (%rax), %rax
	pushq %rax
	movl -4(%rbp), %edx
	popq %rax
	leaq (%rax, %rdx, 8), %rax
	movq (%rax), %rax
	movq (%rax), %rax
	movq 16(%rbp), %rdx
	movq %rax, %rdi
	movq %rdx, %rsi
	call strcmp
	cmpq $0, %rax
	sete %al
	movb %al, %al
	cmpb $0, %al
	jz .L127_end
	subq $16, %rsp
.loc 5 283 13
	movq 24(%rbp), %rax
	movq (%rax), %rax
	movq (%rax), %rax
	pushq %rax
	movl -4(%rbp), %edx
	popq %rax
	leaq (%rax, %rdx, 8), %rax
	movq (%rax), %rax
	addq $16, %rsp
	leave
.cfi_def_cfa 7, 8
	ret
	jmp .L127_end
	addq $16, %rsp
.L127_end:
.L126_for_inc:
.loc 5 281 56
	leaq -4(%rbp), %rax
	pushq %rax
	movl -4(%rbp), %eax
	movl $1, %edx
	addl %edx, %eax
	popq %rbx
	movl %eax, (%rbx)
	jmp .L126_for_start
.L126_for_end:
	addq $16, %rsp
	movl $0, %eax
	movslq %eax, %rax
	leave
.cfi_def_cfa 7, 8
	ret
	leave
.cfi_def_cfa 7, 8
	ret
.cfi_endproc
.loc 5 289 1
.globl new_global_scope
new_global_scope:
.cfi_startproc
	pushq %rbp
.cfi_def_cfa_offset 16
.cfi_offset 6, -16
	movq %rsp, %rbp
.cfi_def_cfa_register 6
	subq $16, %rsp
.loc 5 290 5
	movq $8, %rdi
	call malloc
	movq %rax, %rdi
	movq $0, %rsi
	movq $8, %rdx
	call memset
	movq %rax, %rax
	movq %rax, -8(%rbp)
.loc 5 291 5
	movq -8(%rbp), %rax
	leaq (%rax), %rax
	pushq %rax
	subq $8, %rsp
	movq $16, %rdi
	call malloc
	movq %rax, %rbx
	movl $0, 8(%rbx)
	movl $4, 12(%rbx)
	movq $32, %rdi
	call malloc
	movq %rax, %rdi
	movq $0, %rsi
	movq $32, %rdx
	call memset
	movq %rax, (%rbx)
	movq %rbx, %rax
	addq $8, %rsp
	popq %rbx
	movq %rax, (%rbx)
	movq -8(%rbp), %rax
	addq $16, %rsp
	leave
.cfi_def_cfa 7, 8
	ret
	addq $16, %rsp
	leave
.cfi_def_cfa 7, 8
	ret
.cfi_endproc
.loc 5 295 1
.globl new_stack_frame
new_stack_frame:
.cfi_startproc
	pushq %rbp
.cfi_def_cfa_offset 16
.cfi_offset 6, -16
	movq %rsp, %rbp
.cfi_def_cfa_register 6
	subq $16, %rsp
.loc 5 296 5
	movq $20, %rdi
	call malloc
	movq %rax, %rdi
	movq $0, %rsi
	movq $20, %rdx
	call memset
	movq %rax, %rax
	movq %rax, -8(%rbp)
.loc 5 297 5
	movq -8(%rbp), %rax
	leaq (%rax), %rax
	pushq %rax
	subq $8, %rsp
	movq $16, %rdi
	call malloc
	movq %rax, %rbx
	movl $0, 8(%rbx)
	movl $4, 12(%rbx)
	movq $32, %rdi
	call malloc
	movq %rax, %rdi
	movq $0, %rsi
	movq $32, %rdx
	call memset
	movq %rax, (%rbx)
	movq %rbx, %rax
	addq $8, %rsp
	popq %rbx
	movq %rax, (%rbx)
.loc 5 298 5
	movq -8(%rbp), %rax
	leaq 8(%rax), %rax
	pushq %rax
	movl $0, %eax
	popq %rbx
	movl %eax, (%rbx)
.loc 5 299 5
	movq -8(%rbp), %rax
	leaq 12(%rax), %rax
	pushq %rax
	movq 16(%rbp), %rax
	popq %rbx
	movq %rax, (%rbx)
.loc 5 300 5
	movq 16(%rbp), %rax
	cmpq $0, %rax
	jz .L128_end
	subq $16, %rsp
.loc 5 301 9
	movq -8(%rbp), %rax
	leaq 8(%rax), %rax
	pushq %rax
	movq 16(%rbp), %rax
	movl 8(%rax), %eax
	popq %rbx
	movl %eax, (%rbx)
	jmp .L128_end
	addq $16, %rsp
.L128_end:
	movq -8(%rbp), %rax
	addq $16, %rsp
	leave
.cfi_def_cfa 7, 8
	ret
	addq $16, %rsp
	leave
.cfi_def_cfa 7, 8
	ret
.cfi_endproc
.loc 5 306 1
.globl add_variable
add_variable:
.cfi_startproc
	pushq %rbp
.cfi_def_cfa_offset 16
.cfi_offset 6, -16
	movq %rsp, %rbp
.cfi_def_cfa_register 6
	subq $16, %rsp
.loc 5 307 5
	subq $12, %rsp
	movl 20(%rbp), %eax
	subq $4, %rsp
	movl %eax, (%rsp)
	call get_size
	movl %eax, %eax
	addq $4, %rsp
	addq $12, %rsp
	movl %eax, -4(%rbp)
.loc 5 308 5
	movl 16(%rbp), %eax
	movl $0, %edx
	cmpl %edx, %eax
	sete %al
	movb %al, %al
	cmpb $0, %al
	jz .L129_end
	subq $16, %rsp
.loc 5 309 9
	movq 32(%rbp), %rax
	leaq 8(%rax), %rax
	pushq %rax
	movq 32(%rbp), %rax
	movl 8(%rax), %eax
	movl -4(%rbp), %edx
	subl %edx, %eax
	popq %rbx
	movl %eax, (%rbx)
	jmp .L129_end
	addq $16, %rsp
.L129_end:
.loc 5 311 5
	movq $16, %rdi
	call malloc
	movq %rax, %rdi
	movq $0, %rsi
	movq $16, %rdx
	call memset
	movq %rax, %rax
	movq %rax, -12(%rbp)
.loc 5 312 5
	movq -12(%rbp), %rax
	leaq (%rax), %rax
	pushq %rax
	movq 24(%rbp), %rax
	popq %rbx
	movq %rax, (%rbx)
.loc 5 313 5
	movl 16(%rbp), %eax
	movl $0, %edx
	cmpl %edx, %eax
	sete %al
	movb %al, %al
	cmpb $0, %al
	jz .L130_else
	subq $16, %rsp
.loc 5 314 9
	movq -12(%rbp), %rax
	leaq 8(%rax), %rax
	pushq %rax
	movq 32(%rbp), %rax
	movl 8(%rax), %eax
	popq %rbx
	movl %eax, (%rbx)
	jmp .L130_end
	addq $16, %rsp
.L130_else:
	subq $16, %rsp
.loc 5 317 9
	movq -12(%rbp), %rax
	leaq 8(%rax), %rax
	pushq %rax
	movl 16(%rbp), %eax
	popq %rbx
	movl %eax, (%rbx)
	jmp .L130_end
	addq $16, %rsp
.L130_end:
.loc 5 319 5
	movq -12(%rbp), %rax
	leaq 12(%rax), %rax
	pushq %rax
	movl 20(%rbp), %eax
	popq %rbx
	movl %eax, (%rbx)
.loc 5 320 5
	movq 32(%rbp), %rax
	movq (%rax), %rax
	pushq %rax
	movq -12(%rbp), %rbx
	popq %rax
	call __append_quad
	movq (%rax), %rax
	addl $1, 8(%r12)
	movq -12(%rbp), %rax
	addq $16, %rsp
	leave
.cfi_def_cfa 7, 8
	ret
	addq $16, %rsp
	leave
.cfi_def_cfa 7, 8
	ret
.cfi_endproc
.loc 5 324 1
.globl get_variable
get_variable:
.cfi_startproc
	pushq %rbp
.cfi_def_cfa_offset 16
.cfi_offset 6, -16
	movq %rsp, %rbp
.cfi_def_cfa_register 6
.loc 5 325 5
	movq 24(%rbp), %rax
	cmpq $0, %rax
	jz .L132_end
.loc 5 326 9
	subq $16, %rsp
.loc 5 326 14
	movl $0, %eax
	movl %eax, -4(%rbp)
.L133_for_start:
	movl -4(%rbp), %eax
	pushq %rax
	movq 24(%rbp), %rax
	movq (%rax), %rax
	movl 8(%rax), %edx
	popq %rax
	cmpl %edx, %eax
	setl %al
	movb %al, %al
	cmpb $0, %al
	jz .L133_for_end
.loc 5 327 13
	movq 24(%rbp), %rax
	movq (%rax), %rax
	movq (%rax), %rax
	pushq %rax
	movl -4(%rbp), %edx
	popq %rax
	leaq (%rax, %rdx, 8), %rax
	movq (%rax), %rax
	movq (%rax), %rax
	movq 16(%rbp), %rdx
	movq %rax, %rdi
	movq %rdx, %rsi
	call strcmp
	cmpq $0, %rax
	sete %al
	movb %al, %al
	cmpb $0, %al
	jz .L134_end
	subq $16, %rsp
.loc 5 328 17
	movq 24(%rbp), %rax
	movq (%rax), %rax
	movq (%rax), %rax
	pushq %rax
	movl -4(%rbp), %edx
	popq %rax
	leaq (%rax, %rdx, 8), %rax
	movq (%rax), %rax
	addq $16, %rsp
	leave
.cfi_def_cfa 7, 8
	ret
	jmp .L134_end
	addq $16, %rsp
.L134_end:
.L133_for_inc:
.loc 5 326 59
	leaq -4(%rbp), %rax
	pushq %rax
	movl -4(%rbp), %eax
	movl $1, %edx
	addl %edx, %eax
	popq %rbx
	movl %eax, (%rbx)
	jmp .L133_for_start
.L133_for_end:
	addq $16, %rsp
.loc 5 332 9
	movq 24(%rbp), %rax
	movq 12(%rax), %rax
	cmpq $0, %rax
	jz .L135_end
.loc 5 333 13
	movq 24(%rbp), %rax
	movq 12(%rax), %rax
	pushq %rax
	movq 16(%rbp), %rax
	pushq %rax
	call get_variable
	movq %rax, %rax
	addq $8, %rsp
	addq $8, %rsp
	leave
.cfi_def_cfa 7, 8
	ret
	jmp .L135_end
.L135_end:
	jmp .L132_end
.L132_end:
	movl $0, %eax
	movslq %eax, %rax
	leave
.cfi_def_cfa 7, 8
	ret
	leave
.cfi_def_cfa 7, 8
	ret
.cfi_endproc
.loc 5 339 1
.globl set_bits
set_bits:
.cfi_startproc
	pushq %rbp
.cfi_def_cfa_offset 16
.cfi_offset 6, -16
	movq %rsp, %rbp
.cfi_def_cfa_register 6
	subq $16, %rsp
.loc 5 340 5
	movl 28(%rbp), %eax
	pushq %rax
	movl $1, %eax
	movl $8, %edx
	movb %dl, %cl
	sall %cl, %eax
	movl %eax, %eax
	movl $1, %edx
	subl %edx, %eax
	movl %eax, %edx
	popq %rax
	andl %edx, %eax
	movl %eax, -4(%rbp)
.loc 5 341 5
	leaq 28(%rbp), %rax
	pushq %rax
	movl 28(%rbp), %eax
	movl $8, %edx
	movb %dl, %cl
	sarl %cl, %eax
	popq %rbx
	movl %eax, (%rbx)
.loc 5 342 5
	movl 28(%rbp), %eax
	pushq %rax
	movl $1, %eax
	movl $8, %edx
	movb %dl, %cl
	sall %cl, %eax
	movl %eax, %eax
	movl $1, %edx
	subl %edx, %eax
	movl %eax, %edx
	popq %rax
	andl %edx, %eax
	movl %eax, -8(%rbp)
.loc 5 343 5
	leaq 28(%rbp), %rax
	pushq %rax
	movl 28(%rbp), %eax
	movl $8, %edx
	movb %dl, %cl
	sarl %cl, %eax
	popq %rbx
	movl %eax, (%rbx)
.loc 5 344 5
	movl 28(%rbp), %eax
	pushq %rax
	movl $1, %eax
	movl $8, %edx
	movb %dl, %cl
	sall %cl, %eax
	movl %eax, %eax
	movl $1, %edx
	subl %edx, %eax
	movl %eax, %edx
	popq %rax
	andl %edx, %eax
	movl %eax, -12(%rbp)
.loc 5 346 5
	leaq -12(%rbp), %rax
	pushq %rax
	movl -12(%rbp), %eax
	movl $1, %edx
	movb %dl, %cl
	sall %cl, %eax
	popq %rbx
	movl %eax, (%rbx)
.loc 5 347 5
	leaq -8(%rbp), %rax
	pushq %rax
	movl -8(%rbp), %eax
	movl $1, %edx
	movb %dl, %cl
	sall %cl, %eax
	popq %rbx
	movl %eax, (%rbx)
.loc 5 348 5
	movl -12(%rbp), %eax
	movl $256, %edx
	cmpl %edx, %eax
	setg %al
	movb %al, %al
	cmpb $0, %al
	jz .L136_end
	subq $16, %rsp
.loc 5 349 9
	subq $8, %rsp
	leaq .str_244(%rip), %rax
	pushq %rax
	call error
	addq $8, %rsp
	addq $8, %rsp
	jmp .L136_end
	addq $16, %rsp
.L136_end:
.loc 5 351 5
	movl -8(%rbp), %eax
	movl $256, %edx
	cmpl %edx, %eax
	setg %al
	movb %al, %al
	cmpb $0, %al
	jz .L137_end
	subq $16, %rsp
.loc 5 352 9
	subq $8, %rsp
	leaq .str_245(%rip), %rax
	pushq %rax
	call error
	addq $8, %rsp
	addq $8, %rsp
	jmp .L137_end
	addq $16, %rsp
.L137_end:
.loc 5 354 5
	leaq -8(%rbp), %rax
	pushq %rax
	movl -8(%rbp), %eax
	movl 20(%rbp), %edx
	orl %edx, %eax
	popq %rbx
	movl %eax, (%rbx)
.loc 5 355 5
	leaq -12(%rbp), %rax
	pushq %rax
	movl -12(%rbp), %eax
	movl 24(%rbp), %edx
	orl %edx, %eax
	popq %rbx
	movl %eax, (%rbx)
	movl 16(%rbp), %eax
	movl $24, %edx
	movb %dl, %cl
	sall %cl, %eax
	movl %eax, %eax
	pushq %rax
	movl -12(%rbp), %eax
	movl $16, %edx
	movb %dl, %cl
	sall %cl, %eax
	movl %eax, %edx
	popq %rax
	orl %edx, %eax
	movl %eax, %eax
	pushq %rax
	movl -8(%rbp), %eax
	movl $8, %edx
	movb %dl, %cl
	sall %cl, %eax
	movl %eax, %edx
	popq %rax
	orl %edx, %eax
	movl %eax, %eax
	movl -4(%rbp), %edx
	orl %edx, %eax
	movl %eax, %eax
	addq $16, %rsp
	leave
.cfi_def_cfa 7, 8
	ret
	addq $16, %rsp
	leave
.cfi_def_cfa 7, 8
	ret
.cfi_endproc
.loc 5 358 1
.globl to_pointer
to_pointer:
.cfi_startproc
	pushq %rbp
.cfi_def_cfa_offset 16
.cfi_offset 6, -16
	movq %rsp, %rbp
.cfi_def_cfa_register 6
	movl 16(%rbp), %eax
	subq $4, %rsp
	movl %eax, (%rsp)
	movl $1, %eax
	subq $4, %rsp
	movl %eax, (%rsp)
	movl $0, %eax
	subq $4, %rsp
	movl %eax, (%rsp)
	movl $0, %eax
	subq $4, %rsp
	movl %eax, (%rsp)
	call set_bits
	movl %eax, %eax
	addq $4, %rsp
	addq $4, %rsp
	addq $4, %rsp
	addq $4, %rsp
	leave
.cfi_def_cfa 7, 8
	ret
	leave
.cfi_def_cfa 7, 8
	ret
.cfi_endproc
.loc 5 361 1
.globl to_array
to_array:
.cfi_startproc
	pushq %rbp
.cfi_def_cfa_offset 16
.cfi_offset 6, -16
	movq %rsp, %rbp
.cfi_def_cfa_register 6
	movl 16(%rbp), %eax
	subq $4, %rsp
	movl %eax, (%rsp)
	movl $0, %eax
	subq $4, %rsp
	movl %eax, (%rsp)
	movl $1, %eax
	subq $4, %rsp
	movl %eax, (%rsp)
	movl $0, %eax
	subq $4, %rsp
	movl %eax, (%rsp)
	call set_bits
	movl %eax, %eax
	addq $4, %rsp
	addq $4, %rsp
	addq $4, %rsp
	addq $4, %rsp
	leave
.cfi_def_cfa 7, 8
	ret
	leave
.cfi_def_cfa 7, 8
	ret
.cfi_endproc
.loc 5 364 1
.globl to_const
to_const:
.cfi_startproc
	pushq %rbp
.cfi_def_cfa_offset 16
.cfi_offset 6, -16
	movq %rsp, %rbp
.cfi_def_cfa_register 6
	movl 16(%rbp), %eax
	subq $4, %rsp
	movl %eax, (%rsp)
	movl $0, %eax
	subq $4, %rsp
	movl %eax, (%rsp)
	movl $0, %eax
	subq $4, %rsp
	movl %eax, (%rsp)
	movl $1, %eax
	subq $4, %rsp
	movl %eax, (%rsp)
	call set_bits
	movl %eax, %eax
	addq $4, %rsp
	addq $4, %rsp
	addq $4, %rsp
	addq $4, %rsp
	leave
.cfi_def_cfa 7, 8
	ret
	leave
.cfi_def_cfa 7, 8
	ret
.cfi_endproc
.loc 5 368 1
.globl get_underlying_type
get_underlying_type:
.cfi_startproc
	pushq %rbp
.cfi_def_cfa_offset 16
.cfi_offset 6, -16
	movq %rsp, %rbp
.cfi_def_cfa_register 6
.loc 5 369 5
	leaq 16(%rbp), %rax
	pushq %rax
	movl 16(%rbp), %eax
	pushq %rax
	movl $1, %eax
	movl $24, %edx
	movb %dl, %cl
	sall %cl, %eax
	movl %eax, %eax
	notl %eax
	movl %eax, %edx
	popq %rax
	andl %edx, %eax
	popq %rbx
	movl %eax, (%rbx)
.loc 5 370 5
	subq $12, %rsp
	movl 16(%rbp), %eax
	subq $4, %rsp
	movl %eax, (%rsp)
	call is_array
	movb %al, %al
	addq $4, %rsp
	addq $12, %rsp
	cmpb $0, %al
	jz .L138_end
.loc 5 371 9
	leaq 16(%rbp), %rax
	pushq %rax
	subq $4, %rsp
	movl 16(%rbp), %eax
	subq $4, %rsp
	movl %eax, (%rsp)
	call dereference_type
	movl %eax, %eax
	addq $4, %rsp
	addq $4, %rsp
	popq %rbx
	movl %eax, (%rbx)
.loc 5 372 9
	leaq 16(%rbp), %rax
	pushq %rax
	subq $4, %rsp
	movl 16(%rbp), %eax
	subq $4, %rsp
	movl %eax, (%rsp)
	call to_pointer
	movl %eax, %eax
	addq $4, %rsp
	addq $4, %rsp
	popq %rbx
	movl %eax, (%rbx)
	jmp .L138_end
.L138_end:
.loc 5 374 5
	movl 16(%rbp), %eax
	movl $5, %edx
	cmpl %edx, %eax
	sete %al
	movb %al, %al
	pushq %rax
	movl 16(%rbp), %eax
	movl $7, %edx
	cmpl %edx, %eax
	sete %al
	movb %al, %dl
	popq %rax
	orb %dl, %al
	movb %al, %al
	pushq %rax
	movl 16(%rbp), %eax
	movl $6, %edx
	cmpl %edx, %eax
	sete %al
	movb %al, %dl
	popq %rax
	orb %dl, %al
	movb %al, %al
	cmpb $0, %al
	jz .L139_end
.loc 5 375 9
	leaq 16(%rbp), %rax
	pushq %rax
	movl $3, %eax
	popq %rbx
	movl %eax, (%rbx)
.loc 5 376 9
	leaq 16(%rbp), %rax
	pushq %rax
	subq $4, %rsp
	movl 16(%rbp), %eax
	subq $4, %rsp
	movl %eax, (%rsp)
	call to_pointer
	movl %eax, %eax
	addq $4, %rsp
	addq $4, %rsp
	popq %rbx
	movl %eax, (%rbx)
	jmp .L139_end
.L139_end:
	movl 16(%rbp), %eax
	leave
.cfi_def_cfa 7, 8
	ret
	leave
.cfi_def_cfa 7, 8
	ret
.cfi_endproc
.loc 1 5 1
.file 6 "src/parser"
.loc 6 1 0
.loc 6 7 1
.loc 6 11 1
.loc 6 18 1
.loc 6 23 1
.loc 6 31 1
.loc 6 36 1
.loc 6 40 1
.loc 6 44 1
.loc 6 48 1
.loc 6 52 1
.loc 6 57 1
.loc 6 63 1
.loc 6 68 1
.loc 6 73 1
.loc 6 79 1
.loc 6 84 1
.loc 6 88 1
.loc 6 96 1
.loc 6 101 1
.loc 6 106 1
.loc 6 113 1
.loc 6 117 1
.loc 6 121 1
.loc 6 125 1
.loc 6 129 1
.loc 6 134 1
.loc 6 138 1
.loc 6 142 1
.loc 6 145 1
.globl add_statement
add_statement:
.cfi_startproc
	pushq %rbp
.cfi_def_cfa_offset 16
.cfi_offset 6, -16
	movq %rsp, %rbp
.cfi_def_cfa_register 6
.loc 6 146 5
	movq 24(%rbp), %rax
	movq (%rax), %rax
	pushq %rax
	movq 16(%rbp), %rbx
	popq %rax
	call __append_quad
	movq (%rax), %rax
	addl $1, 8(%r12)
	leave
.cfi_def_cfa 7, 8
	ret
.cfi_endproc
.loc 6 149 1
.globl add_parameter
add_parameter:
.cfi_startproc
	pushq %rbp
.cfi_def_cfa_offset 16
.cfi_offset 6, -16
	movq %rsp, %rbp
.cfi_def_cfa_register 6
	subq $16, %rsp
.loc 6 150 5
	movq $16, %rdi
	call malloc
	movq %rax, %rdi
	movq $0, %rsi
	movq $16, %rdx
	call memset
	movq %rax, %rax
	movq %rax, -8(%rbp)
.loc 6 151 5
	movq -8(%rbp), %rax
	leaq (%rax), %rax
	pushq %rax
	movq 20(%rbp), %rax
	popq %rbx
	movq %rax, (%rbx)
.loc 6 152 5
	movq -8(%rbp), %rax
	leaq 12(%rax), %rax
	pushq %rax
	movl 16(%rbp), %eax
	popq %rbx
	movl %eax, (%rbx)
.loc 6 153 5
	movq 28(%rbp), %rax
	movq 8(%rax), %rax
	pushq %rax
	movq -8(%rbp), %rbx
	popq %rax
	call __append_quad
	movq (%rax), %rax
	addl $1, 8(%r12)
	addq $16, %rsp
	leave
.cfi_def_cfa 7, 8
	ret
.cfi_endproc
.loc 6 156 1
.globl add_argument
add_argument:
.cfi_startproc
	pushq %rbp
.cfi_def_cfa_offset 16
.cfi_offset 6, -16
	movq %rsp, %rbp
.cfi_def_cfa_register 6
.loc 6 157 5
	movq 24(%rbp), %rax
	movq 8(%rax), %rax
	pushq %rax
	movq 16(%rbp), %rbx
	popq %rax
	call __append_quad
	movq (%rax), %rax
	addl $1, 8(%r12)
	leave
.cfi_def_cfa 7, 8
	ret
.cfi_endproc
.loc 6 160 1
.globl add_signature
add_signature:
.cfi_startproc
	pushq %rbp
.cfi_def_cfa_offset 16
.cfi_offset 6, -16
	movq %rsp, %rbp
.cfi_def_cfa_register 6
	subq $16, %rsp
.loc 6 161 5
	movq $20, %rdi
	call malloc
	movq %rax, %rdi
	movq $0, %rsi
	movq $20, %rdx
	call memset
	movq %rax, %rax
	movq %rax, -8(%rbp)
.loc 6 162 5
	movq -8(%rbp), %rax
	leaq 8(%rax), %rax
	pushq %rax
	subq $8, %rsp
	movq $16, %rdi
	call malloc
	movq %rax, %rbx
	movl $0, 8(%rbx)
	movl $4, 12(%rbx)
	movq $32, %rdi
	call malloc
	movq %rax, %rdi
	movq $0, %rsi
	movq $32, %rdx
	call memset
	movq %rax, (%rbx)
	movq %rbx, %rax
	addq $8, %rsp
	popq %rbx
	movq %rax, (%rbx)
.loc 6 163 5
	movq 16(%rbp), %rax
	movq (%rax), %rax
	pushq %rax
	movq -8(%rbp), %rbx
	popq %rax
	call __append_quad
	movq (%rax), %rax
	addl $1, 8(%r12)
	movq -8(%rbp), %rax
	addq $16, %rsp
	leave
.cfi_def_cfa 7, 8
	ret
	addq $16, %rsp
	leave
.cfi_def_cfa 7, 8
	ret
.cfi_endproc
.loc 6 167 1
.globl get_signature
get_signature:
.cfi_startproc
	pushq %rbp
.cfi_def_cfa_offset 16
.cfi_offset 6, -16
	movq %rsp, %rbp
.cfi_def_cfa_register 6
.loc 6 168 5
	subq $16, %rsp
.loc 6 168 10
	movl $0, %eax
	movl %eax, -4(%rbp)
.L144_for_start:
	movl -4(%rbp), %eax
	pushq %rax
	movq 24(%rbp), %rax
	movq (%rax), %rax
	movl 8(%rax), %edx
	popq %rax
	cmpl %edx, %eax
	setl %al
	movb %al, %al
	cmpb $0, %al
	jz .L144_for_end
.loc 6 169 9
	movq 24(%rbp), %rax
	movq (%rax), %rax
	movq (%rax), %rax
	pushq %rax
	movl -4(%rbp), %edx
	popq %rax
	leaq (%rax, %rdx, 8), %rax
	movq (%rax), %rax
	movq (%rax), %rax
	movq 16(%rbp), %rdx
	movq %rax, %rdi
	movq %rdx, %rsi
	call strcmp
	cmpq $0, %rax
	sete %al
	movb %al, %al
	cmpb $0, %al
	jz .L145_end
	subq $16, %rsp
.loc 6 170 13
	movq 24(%rbp), %rax
	movq (%rax), %rax
	movq (%rax), %rax
	pushq %rax
	movl -4(%rbp), %edx
	popq %rax
	leaq (%rax, %rdx, 8), %rax
	movq (%rax), %rax
	addq $16, %rsp
	leave
.cfi_def_cfa 7, 8
	ret
	jmp .L145_end
	addq $16, %rsp
.L145_end:
.L144_for_inc:
.loc 6 168 62
	leaq -4(%rbp), %rax
	pushq %rax
	movl -4(%rbp), %eax
	movl $1, %edx
	addl %edx, %eax
	popq %rbx
	movl %eax, (%rbx)
	jmp .L144_for_start
.L144_for_end:
	addq $16, %rsp
.loc 6 174 5
	subq $8, %rsp
	leaq .str_246(%rip), %rax
	movq 16(%rbp), %rdx
	pushq %rdx
	pushq %rax
	movq $64, %rdi
	call malloc
	movq %rax, %r15
	movq $0, %r14
	movq $64, %r13
	popq %r12
	call __append_string_to_builder
	popq %r12
	subq $8, %rsp
	call __append_string_to_builder
	addq $8, %rsp
	movq %r15, %rax
	movq %rax, %rax
	leaq .str_247(%rip), %rdx
	movq %rdx, %r12
	subq $8, %rsp
	call __append_string_to_builder
	addq $8, %rsp
	movq %r15, %rax
	movq %rax, %rax
	pushq %rax
	call error
	addq $8, %rsp
	addq $8, %rsp
	movl $0, %eax
	movslq %eax, %rax
	leave
.cfi_def_cfa 7, 8
	ret
	leave
.cfi_def_cfa 7, 8
	ret
.cfi_endproc
.loc 6 178 1
.globl parse_base_type
parse_base_type:
.cfi_startproc
	pushq %rbp
.cfi_def_cfa_offset 16
.cfi_offset 6, -16
	movq %rsp, %rbp
.cfi_def_cfa_register 6
	subq $16, %rsp
.loc 6 179 5
	call get_next_token
	movq %rax, %rax
	movq %rax, -8(%rbp)
.loc 6 180 5
	movq -8(%rbp), %rax
	movl 8(%rax), %eax
	movl $0, %edx
	cmpl %edx, %eax
	sete %al
	movb %al, %al
	cmpb $0, %al
	jz .L149_else
	subq $16, %rsp
.loc 6 181 9
	movq .struct_registry(%rip), %rax
	pushq %rax
	movq -8(%rbp), %rax
	movq (%rax), %rax
	pushq %rax
	call get_struct
	movq %rax, %rax
	addq $8, %rsp
	addq $8, %rsp
	movq %rax, -16(%rbp)
.loc 6 182 9
	movq -16(%rbp), %rax
	movl 12(%rax), %eax
	addq $16, %rsp
	leave
.cfi_def_cfa 7, 8
	ret
	jmp .L149_end
	addq $16, %rsp
.L149_else:
	subq $16, %rsp
.loc 6 185 9
	subq $8, %rsp
	movq -8(%rbp), %rax
	pushq %rax
	call variable_type_from_token
	movl %eax, %eax
	addq $8, %rsp
	addq $8, %rsp
	addq $16, %rsp
	leave
.cfi_def_cfa 7, 8
	ret
	jmp .L149_end
	addq $16, %rsp
.L149_end:
	addq $16, %rsp
	leave
.cfi_def_cfa 7, 8
	ret
.cfi_endproc
.loc 6 189 1
.loc 6 191 1
.globl parse_type
parse_type:
.cfi_startproc
	pushq %rbp
.cfi_def_cfa_offset 16
.cfi_offset 6, -16
	movq %rsp, %rbp
.cfi_def_cfa_register 6
	subq $16, %rsp
.loc 6 192 5
	call parse_base_type
	movl %eax, %eax
	movl %eax, -4(%rbp)
.loc 6 193 5
.loc 6 194 5
	subq $16, %rsp
.L150_while_start:
	movl $1, %eax
	cmpl $0, %eax
	jz .L150_while_end
.loc 6 195 9
	leaq .token(%rip), %rax
	pushq %rax
	subq $8, %rsp
	call peek_next_token
	movq %rax, %rax
	addq $8, %rsp
	popq %rbx
	movq %rax, (%rbx)
.loc 6 196 9
	movq .token(%rip), %rax
	movl 8(%rax), %eax
	movl $8, %edx
	cmpl %edx, %eax
	sete %al
	movb %al, %al
	cmpb $0, %al
	jz .L151_elseif_0
	subq $16, %rsp
.loc 6 197 13
	call consume_next_token
.loc 6 198 13
	leaq -4(%rbp), %rax
	pushq %rax
	subq $4, %rsp
	movl -4(%rbp), %eax
	subq $4, %rsp
	movl %eax, (%rsp)
	call to_pointer
	movl %eax, %eax
	addq $4, %rsp
	addq $4, %rsp
	popq %rbx
	movl %eax, (%rbx)
	jmp .L151_end
	addq $16, %rsp
.L151_elseif_0:
	movq .token(%rip), %rax
	movl 8(%rax), %eax
	movl $25, %edx
	cmpl %edx, %eax
	sete %al
	movb %al, %al
	cmpb $0, %al
	jz .L151_else
	subq $16, %rsp
.loc 6 201 13
	call consume_next_token
.loc 6 202 13
	subq $12, %rsp
	movl $26, %eax
	subq $4, %rsp
	movl %eax, (%rsp)
	call expect_token
	movq %rax, %rax
	addq $4, %rsp
	addq $12, %rsp
.loc 6 203 13
	leaq -4(%rbp), %rax
	pushq %rax
	subq $4, %rsp
	movl -4(%rbp), %eax
	subq $4, %rsp
	movl %eax, (%rsp)
	call to_array
	movl %eax, %eax
	addq $4, %rsp
	addq $4, %rsp
	popq %rbx
	movl %eax, (%rbx)
	jmp .L151_end
	addq $16, %rsp
.L151_else:
	subq $16, %rsp
.loc 6 206 13
	jmp .L150_while_end
	jmp .L151_end
	addq $16, %rsp
.L151_end:
	jmp .L150_while_start
.L150_while_end:
	addq $16, %rsp
	movl -4(%rbp), %eax
	addq $16, %rsp
	leave
.cfi_def_cfa 7, 8
	ret
	addq $16, %rsp
	leave
.cfi_def_cfa 7, 8
	ret
.cfi_endproc
.loc 6 212 1
.globl parse_primary
parse_primary:
.cfi_startproc
	pushq %rbp
.cfi_def_cfa_offset 16
.cfi_offset 6, -16
	movq %rsp, %rbp
.cfi_def_cfa_register 6
	subq $16, %rsp
.loc 6 213 5
	call get_next_token
	movq %rax, %rax
	movq %rax, -8(%rbp)
.loc 6 215 5
	movq -8(%rbp), %rax
	movl 8(%rax), %eax
	movl $1, %edx
	cmpl %edx, %eax
	sete %al
	movb %al, %al
	cmpb $0, %al
	jz .L152_elseif_0
	subq $32, %rsp
.loc 6 216 9
	movq $16, %rdi
	call malloc
	movq %rax, %rdi
	movq $0, %rsi
	movq $16, %rdx
	call memset
	movq %rax, %rax
	movq %rax, -16(%rbp)
.loc 6 217 9
	movq -16(%rbp), %rax
	leaq 12(%rax), %rax
	pushq %rax
	movq -8(%rbp), %rax
	movl 12(%rax), %eax
	popq %rbx
	movl %eax, (%rbx)
.loc 6 218 9
	movq -16(%rbp), %rax
	leaq 8(%rax), %rax
	pushq %rax
	movl $1, %eax
	popq %rbx
	movl %eax, (%rbx)
.loc 6 219 9
	movq $4, %rdi
	call malloc
	movq %rax, %rdi
	movq $0, %rsi
	movq $4, %rdx
	call memset
	movq %rax, %rax
	movq %rax, -24(%rbp)
.loc 6 220 9
	movq -24(%rbp), %rax
	leaq (%rax), %rax
	pushq %rax
	movq -8(%rbp), %rax
	movq (%rax), %rax
	movl (%rax), %eax
	popq %rbx
	movl %eax, (%rbx)
.loc 6 221 9
	movq -16(%rbp), %rax
	leaq (%rax), %rax
	pushq %rax
	movq -24(%rbp), %rax
	popq %rbx
	movq %rax, (%rbx)
.loc 6 222 9
	movq -16(%rbp), %rax
	addq $32, %rsp
	leave
.cfi_def_cfa 7, 8
	ret
	jmp .L152_end
	addq $32, %rsp
.L152_elseif_0:
	movq -8(%rbp), %rax
	movl 8(%rax), %eax
	movl $2, %edx
	cmpl %edx, %eax
	sete %al
	movb %al, %al
	cmpb $0, %al
	jz .L152_elseif_1
	subq $32, %rsp
.loc 6 225 9
	movq $16, %rdi
	call malloc
	movq %rax, %rdi
	movq $0, %rsi
	movq $16, %rdx
	call memset
	movq %rax, %rax
	movq %rax, -16(%rbp)
.loc 6 226 9
	movq -16(%rbp), %rax
	leaq 12(%rax), %rax
	pushq %rax
	movq -8(%rbp), %rax
	movl 12(%rax), %eax
	popq %rbx
	movl %eax, (%rbx)
.loc 6 227 9
	movq -16(%rbp), %rax
	leaq 8(%rax), %rax
	pushq %rax
	movl $2, %eax
	popq %rbx
	movl %eax, (%rbx)
.loc 6 228 9
	movq $8, %rdi
	call malloc
	movq %rax, %rdi
	movq $0, %rsi
	movq $8, %rdx
	call memset
	movq %rax, %rax
	movq %rax, -24(%rbp)
.loc 6 229 9
	movq -24(%rbp), %rax
	leaq (%rax), %rax
	pushq %rax
	movq -8(%rbp), %rax
	movq (%rax), %rax
	movq (%rax), %rax
	popq %rbx
	movq %rax, (%rbx)
.loc 6 230 9
	movq -16(%rbp), %rax
	leaq (%rax), %rax
	pushq %rax
	movq -24(%rbp), %rax
	popq %rbx
	movq %rax, (%rbx)
.loc 6 231 9
	movq -16(%rbp), %rax
	addq $32, %rsp
	leave
.cfi_def_cfa 7, 8
	ret
	jmp .L152_end
	addq $32, %rsp
.L152_elseif_1:
	movq -8(%rbp), %rax
	movl 8(%rax), %eax
	movl $30, %edx
	cmpl %edx, %eax
	sete %al
	movb %al, %al
	cmpb $0, %al
	jz .L152_elseif_2
	subq $16, %rsp
.loc 6 234 9
	movq $16, %rdi
	call malloc
	movq %rax, %rdi
	movq $0, %rsi
	movq $16, %rdx
	call memset
	movq %rax, %rax
	movq %rax, -16(%rbp)
.loc 6 235 9
	movq -16(%rbp), %rax
	leaq 12(%rax), %rax
	pushq %rax
	movq -8(%rbp), %rax
	movl 12(%rax), %eax
	popq %rbx
	movl %eax, (%rbx)
.loc 6 236 9
	movq -16(%rbp), %rax
	leaq 8(%rax), %rax
	pushq %rax
	movl $17, %eax
	popq %rbx
	movl %eax, (%rbx)
.loc 6 237 9
	movq -16(%rbp), %rax
	addq $16, %rsp
	leave
.cfi_def_cfa 7, 8
	ret
	jmp .L152_end
	addq $16, %rsp
.L152_elseif_2:
	movq -8(%rbp), %rax
	movl 8(%rax), %eax
	movl $31, %edx
	cmpl %edx, %eax
	sete %al
	movb %al, %al
	cmpb $0, %al
	jz .L152_elseif_3
	subq $16, %rsp
.loc 6 240 9
	movq $16, %rdi
	call malloc
	movq %rax, %rdi
	movq $0, %rsi
	movq $16, %rdx
	call memset
	movq %rax, %rax
	movq %rax, -16(%rbp)
.loc 6 241 9
	movq -16(%rbp), %rax
	leaq 12(%rax), %rax
	pushq %rax
	movq -8(%rbp), %rax
	movl 12(%rax), %eax
	popq %rbx
	movl %eax, (%rbx)
.loc 6 242 9
	movq -16(%rbp), %rax
	leaq 8(%rax), %rax
	pushq %rax
	movl $18, %eax
	popq %rbx
	movl %eax, (%rbx)
.loc 6 243 9
	movq -16(%rbp), %rax
	addq $16, %rsp
	leave
.cfi_def_cfa 7, 8
	ret
	jmp .L152_end
	addq $16, %rsp
.L152_elseif_3:
	movq -8(%rbp), %rax
	movl 8(%rax), %eax
	movl $0, %edx
	cmpl %edx, %eax
	sete %al
	movb %al, %al
	cmpb $0, %al
	jz .L152_elseif_4
	subq $16, %rsp
.loc 6 246 9
	call peek_next_token
	movq %rax, %rax
	movl 8(%rax), %eax
	movl $21, %edx
	cmpl %edx, %eax
	sete %al
	movb %al, %al
	cmpb $0, %al
	jz .L153_else
	subq $32, %rsp
.loc 6 247 13
	movq $16, %rdi
	call malloc
	movq %rax, %rdi
	movq $0, %rsi
	movq $16, %rdx
	call memset
	movq %rax, %rax
	movq %rax, -16(%rbp)
.loc 6 248 13
	movq -16(%rbp), %rax
	leaq 12(%rax), %rax
	pushq %rax
	movq -8(%rbp), %rax
	movl 12(%rax), %eax
	popq %rbx
	movl %eax, (%rbx)
.loc 6 249 13
	movq -16(%rbp), %rax
	leaq 8(%rax), %rax
	pushq %rax
	movl $4, %eax
	popq %rbx
	movl %eax, (%rbx)
.loc 6 250 13
	movq $16, %rdi
	call malloc
	movq %rax, %rdi
	movq $0, %rsi
	movq $16, %rdx
	call memset
	movq %rax, %rax
	movq %rax, -24(%rbp)
.loc 6 251 13
	movq -24(%rbp), %rax
	leaq 8(%rax), %rax
	pushq %rax
	subq $8, %rsp
	movq $16, %rdi
	call malloc
	movq %rax, %rbx
	movl $0, 8(%rbx)
	movl $4, 12(%rbx)
	movq $32, %rdi
	call malloc
	movq %rax, %rdi
	movq $0, %rsi
	movq $32, %rdx
	call memset
	movq %rax, (%rbx)
	movq %rbx, %rax
	addq $8, %rsp
	popq %rbx
	movq %rax, (%rbx)
.loc 6 252 13
	movq -24(%rbp), %rax
	leaq (%rax), %rax
	pushq %rax
	movq -8(%rbp), %rax
	movq (%rax), %rax
	popq %rbx
	movq %rax, (%rbx)
.loc 6 254 13
	subq $12, %rsp
	movl $21, %eax
	subq $4, %rsp
	movl %eax, (%rsp)
	call expect_token
	movq %rax, %rax
	addq $4, %rsp
	addq $12, %rsp
.loc 6 256 13
	subq $32, %rsp
.L154_while_start:
	call peek_next_token
	movq %rax, %rax
	movl 8(%rax), %eax
	movl $22, %edx
	cmpl %edx, %eax
	setne %al
	movb %al, %al
	cmpb $0, %al
	jz .L154_while_end
.loc 6 257 17
	subq $12, %rsp
	movl $1, %eax
	subq $4, %rsp
	movl %eax, (%rsp)
	call get_expression
	movq %rax, %rax
	addq $4, %rsp
	addq $12, %rsp
	movq %rax, -32(%rbp)
.loc 6 258 17
	movq -24(%rbp), %rax
	pushq %rax
	movq -32(%rbp), %rax
	pushq %rax
	call add_argument
	addq $8, %rsp
	addq $8, %rsp
.loc 6 259 17
	call peek_next_token
	movq %rax, %rax
	movl 8(%rax), %eax
	movl $22, %edx
	cmpl %edx, %eax
	setne %al
	movb %al, %al
	cmpb $0, %al
	jz .L155_end
	subq $32, %rsp
.loc 6 260 21
	subq $12, %rsp
	movl $12, %eax
	subq $4, %rsp
	movl %eax, (%rsp)
	call expect_token
	movq %rax, %rax
	addq $4, %rsp
	addq $12, %rsp
	jmp .L155_end
	addq $32, %rsp
.L155_end:
	jmp .L154_while_start
.L154_while_end:
	addq $32, %rsp
.loc 6 264 13
	subq $12, %rsp
	movl $22, %eax
	subq $4, %rsp
	movl %eax, (%rsp)
	call expect_token
	movq %rax, %rax
	addq $4, %rsp
	addq $12, %rsp
.loc 6 266 13
	movq -16(%rbp), %rax
	leaq (%rax), %rax
	pushq %rax
	movq -24(%rbp), %rax
	popq %rbx
	movq %rax, (%rbx)
.loc 6 267 13
	movq -16(%rbp), %rax
	addq $32, %rsp
	leave
.cfi_def_cfa 7, 8
	ret
	jmp .L153_end
	addq $32, %rsp
.L153_else:
	subq $32, %rsp
.loc 6 270 13
	movq $16, %rdi
	call malloc
	movq %rax, %rdi
	movq $0, %rsi
	movq $16, %rdx
	call memset
	movq %rax, %rax
	movq %rax, -16(%rbp)
.loc 6 271 13
	movq -16(%rbp), %rax
	leaq 12(%rax), %rax
	pushq %rax
	movq -8(%rbp), %rax
	movl 12(%rax), %eax
	popq %rbx
	movl %eax, (%rbx)
.loc 6 272 13
	movq -16(%rbp), %rax
	leaq 8(%rax), %rax
	pushq %rax
	movl $3, %eax
	popq %rbx
	movl %eax, (%rbx)
.loc 6 273 13
	movq $8, %rdi
	call malloc
	movq %rax, %rdi
	movq $0, %rsi
	movq $8, %rdx
	call memset
	movq %rax, %rax
	movq %rax, -24(%rbp)
.loc 6 274 13
	movq -24(%rbp), %rax
	leaq (%rax), %rax
	pushq %rax
	movq -8(%rbp), %rax
	movq (%rax), %rax
	popq %rbx
	movq %rax, (%rbx)
.loc 6 275 13
	movq -16(%rbp), %rax
	leaq (%rax), %rax
	pushq %rax
	movq -24(%rbp), %rax
	popq %rbx
	movq %rax, (%rbx)
.loc 6 276 13
	movq -16(%rbp), %rax
	addq $32, %rsp
	leave
.cfi_def_cfa 7, 8
	ret
	jmp .L153_end
	addq $32, %rsp
.L153_end:
	jmp .L152_end
	addq $16, %rsp
.L152_elseif_4:
	movq -8(%rbp), %rax
	movl 8(%rax), %eax
	movl $21, %edx
	cmpl %edx, %eax
	sete %al
	movb %al, %al
	cmpb $0, %al
	jz .L152_elseif_5
	subq $16, %rsp
.loc 6 279 9
	subq $12, %rsp
	movl $1, %eax
	subq $4, %rsp
	movl %eax, (%rsp)
	call get_expression
	movq %rax, %rax
	addq $4, %rsp
	addq $12, %rsp
	movq %rax, -16(%rbp)
.loc 6 281 9
	subq $12, %rsp
	movl $22, %eax
	subq $4, %rsp
	movl %eax, (%rsp)
	call expect_token
	movq %rax, %rax
	addq $4, %rsp
	addq $12, %rsp
.loc 6 282 9
	movq -16(%rbp), %rax
	addq $16, %rsp
	leave
.cfi_def_cfa 7, 8
	ret
	jmp .L152_end
	addq $16, %rsp
.L152_elseif_5:
	movq -8(%rbp), %rax
	movl 8(%rax), %eax
	movl $3, %edx
	cmpl %edx, %eax
	sete %al
	movb %al, %al
	cmpb $0, %al
	jz .L152_elseif_6
	subq $32, %rsp
.loc 6 284 9
	movq $16, %rdi
	call malloc
	movq %rax, %rdi
	movq $0, %rsi
	movq $16, %rdx
	call memset
	movq %rax, %rax
	movq %rax, -16(%rbp)
.loc 6 285 9
	movq -16(%rbp), %rax
	leaq 12(%rax), %rax
	pushq %rax
	movq -8(%rbp), %rax
	movl 12(%rax), %eax
	popq %rbx
	movl %eax, (%rbx)
.loc 6 286 9
	movq -16(%rbp), %rax
	leaq 8(%rax), %rax
	pushq %rax
	movl $8, %eax
	popq %rbx
	movl %eax, (%rbx)
.loc 6 287 9
	movq $8, %rdi
	call malloc
	movq %rax, %rdi
	movq $0, %rsi
	movq $8, %rdx
	call memset
	movq %rax, %rax
	movq %rax, -24(%rbp)
.loc 6 288 9
	movq -24(%rbp), %rax
	leaq (%rax), %rax
	pushq %rax
	leaq .str_248(%rip), %rax
	pushq %rax
	subq $12, %rsp
	subq $4, %rsp
	call get_literal_index
	movl %eax, %eax
	addq $4, %rsp
	subq $4, %rsp
	movl %eax, (%rsp)
	call int_to_str
	movq %rax, %rdx
	addq $4, %rsp
	addq $12, %rsp
	popq %rax
	pushq %rdx
	pushq %rax
	movq $64, %rdi
	call malloc
	movq %rax, %r15
	movq $0, %r14
	movq $64, %r13
	popq %r12
	call __append_string_to_builder
	popq %r12
	subq $8, %rsp
	call __append_string_to_builder
	addq $8, %rsp
	movq %r15, %rax
	popq %rbx
	movq %rax, (%rbx)
.loc 6 289 9
	subq $4, %rsp
	movq .global_scope(%rip), %rax
	pushq %rax
	movq -24(%rbp), %rax
	movq (%rax), %rax
	pushq %rax
	movq -8(%rbp), %rax
	movq (%rax), %rax
	pushq %rax
	movl $7, %eax
	subq $4, %rsp
	movl %eax, (%rsp)
	call add_global_variable
	addq $8, %rsp
	addq $8, %rsp
	addq $8, %rsp
	addq $4, %rsp
	addq $4, %rsp
.loc 6 291 9
	movq -16(%rbp), %rax
	leaq (%rax), %rax
	pushq %rax
	movq -24(%rbp), %rax
	popq %rbx
	movq %rax, (%rbx)
.loc 6 292 9
	movq -16(%rbp), %rax
	addq $32, %rsp
	leave
.cfi_def_cfa 7, 8
	ret
	jmp .L152_end
	addq $32, %rsp
.L152_elseif_6:
	movq -8(%rbp), %rax
	movl 8(%rax), %eax
	movl $4, %edx
	cmpl %edx, %eax
	sete %al
	movb %al, %al
	cmpb $0, %al
	jz .L152_elseif_7
	subq $32, %rsp
.loc 6 294 9
	movq $16, %rdi
	call malloc
	movq %rax, %rdi
	movq $0, %rsi
	movq $16, %rdx
	call memset
	movq %rax, %rax
	movq %rax, -16(%rbp)
.loc 6 295 9
	movq -16(%rbp), %rax
	leaq 12(%rax), %rax
	pushq %rax
	movq -8(%rbp), %rax
	movl 12(%rax), %eax
	popq %rbx
	movl %eax, (%rbx)
.loc 6 296 9
	movq -16(%rbp), %rax
	leaq 8(%rax), %rax
	pushq %rax
	movl $10, %eax
	popq %rbx
	movl %eax, (%rbx)
.loc 6 297 9
	movq $8, %rdi
	call malloc
	movq %rax, %rdi
	movq $0, %rsi
	movq $8, %rdx
	call memset
	movq %rax, %rax
	movq %rax, -24(%rbp)
.loc 6 298 9
	movq -24(%rbp), %rax
	leaq (%rax), %rax
	pushq %rax
	leaq .str_249(%rip), %rax
	pushq %rax
	subq $12, %rsp
	subq $4, %rsp
	call get_literal_index
	movl %eax, %eax
	addq $4, %rsp
	subq $4, %rsp
	movl %eax, (%rsp)
	call int_to_str
	movq %rax, %rdx
	addq $4, %rsp
	addq $12, %rsp
	popq %rax
	pushq %rdx
	pushq %rax
	movq $64, %rdi
	call malloc
	movq %rax, %r15
	movq $0, %r14
	movq $64, %r13
	popq %r12
	call __append_string_to_builder
	popq %r12
	subq $8, %rsp
	call __append_string_to_builder
	addq $8, %rsp
	movq %r15, %rax
	popq %rbx
	movq %rax, (%rbx)
.loc 6 299 9
	subq $4, %rsp
	movq .global_scope(%rip), %rax
	pushq %rax
	movq -24(%rbp), %rax
	movq (%rax), %rax
	pushq %rax
	movq -8(%rbp), %rax
	movq (%rax), %rax
	pushq %rax
	movl $3, %eax
	subq $4, %rsp
	movl %eax, (%rsp)
	call add_global_variable
	addq $8, %rsp
	addq $8, %rsp
	addq $8, %rsp
	addq $4, %rsp
	addq $4, %rsp
.loc 6 301 9
	movq -16(%rbp), %rax
	leaq (%rax), %rax
	pushq %rax
	movq -24(%rbp), %rax
	popq %rbx
	movq %rax, (%rbx)
.loc 6 302 9
	movq -16(%rbp), %rax
	addq $32, %rsp
	leave
.cfi_def_cfa 7, 8
	ret
	jmp .L152_end
	addq $32, %rsp
.L152_elseif_7:
	movq -8(%rbp), %rax
	movl 8(%rax), %eax
	movl $62, %edx
	cmpl %edx, %eax
	sete %al
	movb %al, %al
	cmpb $0, %al
	jz .L152_else
	subq $32, %rsp
.loc 6 304 9
	movq $16, %rdi
	call malloc
	movq %rax, %rdi
	movq $0, %rsi
	movq $16, %rdx
	call memset
	movq %rax, %rax
	movq %rax, -16(%rbp)
.loc 6 305 9
	movq -16(%rbp), %rax
	leaq 12(%rax), %rax
	pushq %rax
	movq -8(%rbp), %rax
	movl 12(%rax), %eax
	popq %rbx
	movl %eax, (%rbx)
.loc 6 306 9
	movq -16(%rbp), %rax
	leaq 8(%rax), %rax
	pushq %rax
	movl $11, %eax
	popq %rbx
	movl %eax, (%rbx)
.loc 6 307 9
	movq $4, %rdi
	call malloc
	movq %rax, %rdi
	movq $0, %rsi
	movq $4, %rdx
	call memset
	movq %rax, %rax
	movq %rax, -24(%rbp)
.loc 6 309 9
	call parse_type
	movl %eax, %eax
	movl %eax, -28(%rbp)
.loc 6 311 9
	movq -24(%rbp), %rax
	leaq (%rax), %rax
	pushq %rax
	movl -28(%rbp), %eax
	popq %rbx
	movl %eax, (%rbx)
.loc 6 313 9
	movq -16(%rbp), %rax
	leaq (%rax), %rax
	pushq %rax
	movq -24(%rbp), %rax
	popq %rbx
	movq %rax, (%rbx)
.loc 6 314 9
	movq -16(%rbp), %rax
	addq $32, %rsp
	leave
.cfi_def_cfa 7, 8
	ret
	jmp .L152_end
	addq $32, %rsp
.L152_else:
	subq $32, %rsp
.loc 6 317 9
	movq $16, %rdi
	call malloc
	movq %rax, %rdi
	movq $0, %rsi
	movq $16, %rdx
	call memset
	movq %rax, %rax
	movq %rax, -16(%rbp)
.loc 6 318 9
	movq -16(%rbp), %rax
	leaq 12(%rax), %rax
	pushq %rax
	movq -8(%rbp), %rax
	movl 12(%rax), %eax
	popq %rbx
	movl %eax, (%rbx)
.loc 6 319 9
	movq -16(%rbp), %rax
	leaq 8(%rax), %rax
	pushq %rax
	movl $6, %eax
	popq %rbx
	movl %eax, (%rbx)
.loc 6 320 9
	movq $12, %rdi
	call malloc
	movq %rax, %rdi
	movq $0, %rsi
	movq $12, %rdx
	call memset
	movq %rax, %rax
	movq %rax, -24(%rbp)
.loc 6 321 9
	movq -24(%rbp), %rax
	leaq (%rax), %rax
	pushq %rax
	movq -8(%rbp), %rax
	movl 8(%rax), %eax
	popq %rbx
	movl %eax, (%rbx)
.loc 6 322 9
	movq -24(%rbp), %rax
	leaq 4(%rax), %rax
	pushq %rax
	subq $4, %rsp
	movl $100, %eax
	subq $4, %rsp
	movl %eax, (%rsp)
	call get_expression
	movq %rax, %rax
	addq $4, %rsp
	addq $4, %rsp
	popq %rbx
	movq %rax, (%rbx)
.loc 6 323 9
	movq -16(%rbp), %rax
	leaq (%rax), %rax
	pushq %rax
	movq -24(%rbp), %rax
	popq %rbx
	movq %rax, (%rbx)
.loc 6 324 9
	movq -16(%rbp), %rax
	addq $32, %rsp
	leave
.cfi_def_cfa 7, 8
	ret
	jmp .L152_end
	addq $32, %rsp
.L152_end:
	addq $16, %rsp
	leave
.cfi_def_cfa 7, 8
	ret
.cfi_endproc
.loc 6 328 1
.globl get_precedence
get_precedence:
.cfi_startproc
	pushq %rbp
.cfi_def_cfa_offset 16
.cfi_offset 6, -16
	movq %rsp, %rbp
.cfi_def_cfa_register 6
.loc 6 329 5
	movl 16(%rbp), %eax
	movl $39, %edx
	cmpl %edx, %eax
	sete %al
	movb %al, %al
	cmpb $0, %al
	jz .L160_elseif_0
.loc 6 330 9
	movl $1, %eax
	leave
.cfi_def_cfa 7, 8
	ret
	jmp .L160_end
.L160_elseif_0:
	movl 16(%rbp), %eax
	movl $40, %edx
	cmpl %edx, %eax
	sete %al
	movb %al, %al
	cmpb $0, %al
	jz .L160_elseif_1
.loc 6 333 9
	movl $2, %eax
	leave
.cfi_def_cfa 7, 8
	ret
	jmp .L160_end
.L160_elseif_1:
	movl 16(%rbp), %eax
	movl $38, %edx
	cmpl %edx, %eax
	sete %al
	movb %al, %al
	cmpb $0, %al
	jz .L160_elseif_2
.loc 6 336 9
	movl $3, %eax
	leave
.cfi_def_cfa 7, 8
	ret
	jmp .L160_end
.L160_elseif_2:
	movl 16(%rbp), %eax
	movl $14, %edx
	cmpl %edx, %eax
	sete %al
	movb %al, %al
	cmpb $0, %al
	jz .L160_elseif_3
.loc 6 339 9
	movl $3, %eax
	leave
.cfi_def_cfa 7, 8
	ret
	jmp .L160_end
.L160_elseif_3:
	movl 16(%rbp), %eax
	movl $32, %edx
	cmpl %edx, %eax
	sete %al
	movb %al, %al
	pushq %rax
	movl 16(%rbp), %eax
	movl $33, %edx
	cmpl %edx, %eax
	sete %al
	movb %al, %dl
	popq %rax
	orb %dl, %al
	movb %al, %al
	pushq %rax
	movl 16(%rbp), %eax
	movl $34, %edx
	cmpl %edx, %eax
	sete %al
	movb %al, %dl
	popq %rax
	orb %dl, %al
	movb %al, %al
	pushq %rax
	movl 16(%rbp), %eax
	movl $35, %edx
	cmpl %edx, %eax
	sete %al
	movb %al, %dl
	popq %rax
	orb %dl, %al
	movb %al, %al
	pushq %rax
	movl 16(%rbp), %eax
	movl $36, %edx
	cmpl %edx, %eax
	sete %al
	movb %al, %dl
	popq %rax
	orb %dl, %al
	movb %al, %al
	pushq %rax
	movl 16(%rbp), %eax
	movl $37, %edx
	cmpl %edx, %eax
	sete %al
	movb %al, %dl
	popq %rax
	orb %dl, %al
	movb %al, %al
	cmpb $0, %al
	jz .L160_elseif_4
.loc 6 342 9
	movl $4, %eax
	leave
.cfi_def_cfa 7, 8
	ret
	jmp .L160_end
.L160_elseif_4:
	movl 16(%rbp), %eax
	movl $6, %edx
	cmpl %edx, %eax
	sete %al
	movb %al, %al
	pushq %rax
	movl 16(%rbp), %eax
	movl $7, %edx
	cmpl %edx, %eax
	sete %al
	movb %al, %dl
	popq %rax
	orb %dl, %al
	movb %al, %al
	cmpb $0, %al
	jz .L160_elseif_5
.loc 6 345 9
	movl $5, %eax
	leave
.cfi_def_cfa 7, 8
	ret
	jmp .L160_end
.L160_elseif_5:
	movl 16(%rbp), %eax
	movl $8, %edx
	cmpl %edx, %eax
	sete %al
	movb %al, %al
	pushq %rax
	movl 16(%rbp), %eax
	movl $9, %edx
	cmpl %edx, %eax
	sete %al
	movb %al, %dl
	popq %rax
	orb %dl, %al
	movb %al, %al
	pushq %rax
	movl 16(%rbp), %eax
	movl $10, %edx
	cmpl %edx, %eax
	sete %al
	movb %al, %dl
	popq %rax
	orb %dl, %al
	movb %al, %al
	cmpb $0, %al
	jz .L160_elseif_6
.loc 6 348 9
	movl $6, %eax
	leave
.cfi_def_cfa 7, 8
	ret
	jmp .L160_end
.L160_elseif_6:
	movl 16(%rbp), %eax
	movl $41, %edx
	cmpl %edx, %eax
	sete %al
	movb %al, %al
	cmpb $0, %al
	jz .L160_elseif_7
.loc 6 351 9
	movl $7, %eax
	leave
.cfi_def_cfa 7, 8
	ret
	jmp .L160_end
.L160_elseif_7:
	movl 16(%rbp), %eax
	movl $42, %edx
	cmpl %edx, %eax
	sete %al
	movb %al, %al
	cmpb $0, %al
	jz .L160_elseif_8
.loc 6 354 9
	movl $8, %eax
	leave
.cfi_def_cfa 7, 8
	ret
	jmp .L160_end
.L160_elseif_8:
	movl 16(%rbp), %eax
	movl $43, %edx
	cmpl %edx, %eax
	sete %al
	movb %al, %al
	cmpb $0, %al
	jz .L160_elseif_9
.loc 6 357 9
	movl $9, %eax
	leave
.cfi_def_cfa 7, 8
	ret
	jmp .L160_end
.L160_elseif_9:
	movl 16(%rbp), %eax
	movl $44, %edx
	cmpl %edx, %eax
	sete %al
	movb %al, %al
	pushq %rax
	movl 16(%rbp), %eax
	movl $45, %edx
	cmpl %edx, %eax
	sete %al
	movb %al, %dl
	popq %rax
	orb %dl, %al
	movb %al, %al
	cmpb $0, %al
	jz .L160_elseif_10
.loc 6 360 9
	movl $10, %eax
	leave
.cfi_def_cfa 7, 8
	ret
	jmp .L160_end
.L160_elseif_10:
	movl 16(%rbp), %eax
	movl $25, %edx
	cmpl %edx, %eax
	sete %al
	movb %al, %al
	pushq %rax
	movl 16(%rbp), %eax
	movl $20, %edx
	cmpl %edx, %eax
	sete %al
	movb %al, %dl
	popq %rax
	orb %dl, %al
	movb %al, %al
	pushq %rax
	movl 16(%rbp), %eax
	movl $13, %edx
	cmpl %edx, %eax
	sete %al
	movb %al, %dl
	popq %rax
	orb %dl, %al
	movb %al, %al
	pushq %rax
	movl 16(%rbp), %eax
	movl $17, %edx
	cmpl %edx, %eax
	sete %al
	movb %al, %dl
	popq %rax
	orb %dl, %al
	movb %al, %al
	cmpb $0, %al
	jz .L160_elseif_11
.loc 6 363 9
	movl $11, %eax
	leave
.cfi_def_cfa 7, 8
	ret
	jmp .L160_end
.L160_elseif_11:
	movl 16(%rbp), %eax
	movl $19, %edx
	cmpl %edx, %eax
	sete %al
	movb %al, %al
	cmpb $0, %al
	jz .L160_else
.loc 6 366 9
	movl $12, %eax
	leave
.cfi_def_cfa 7, 8
	ret
	jmp .L160_end
.L160_else:
.loc 6 369 9
	movl $0, %eax
	leave
.cfi_def_cfa 7, 8
	ret
	jmp .L160_end
.L160_end:
	leave
.cfi_def_cfa 7, 8
	ret
.cfi_endproc
.loc 6 373 1
.globl get_expression
get_expression:
.cfi_startproc
	pushq %rbp
.cfi_def_cfa_offset 16
.cfi_offset 6, -16
	movq %rsp, %rbp
.cfi_def_cfa_register 6
	subq $16, %rsp
.loc 6 374 5
	call parse_primary
	movq %rax, %rax
	movq %rax, -8(%rbp)
.loc 6 375 5
	subq $32, %rsp
.L161_while_start:
	movl $1, %eax
	cmpl $0, %eax
	jz .L161_while_end
.loc 6 376 9
	call peek_next_token
	movq %rax, %rax
	movq %rax, -16(%rbp)
.loc 6 377 9
	subq $12, %rsp
	movq -16(%rbp), %rax
	movl 8(%rax), %eax
	subq $4, %rsp
	movl %eax, (%rsp)
	call get_precedence
	movl %eax, %eax
	addq $4, %rsp
	addq $12, %rsp
	movl %eax, -20(%rbp)
.loc 6 378 9
	movl -20(%rbp), %eax
	movl 16(%rbp), %edx
	cmpl %edx, %eax
	setl %al
	movb %al, %al
	cmpb $0, %al
	jz .L162_end
	subq $32, %rsp
.loc 6 379 13
	jmp .L161_while_end
	jmp .L162_end
	addq $32, %rsp
.L162_end:
.loc 6 382 9
	movq -16(%rbp), %rax
	movl 8(%rax), %eax
	movl $20, %edx
	cmpl %edx, %eax
	sete %al
	movb %al, %al
	pushq %rax
	movq -16(%rbp), %rax
	movl 8(%rax), %eax
	movl $17, %edx
	cmpl %edx, %eax
	sete %al
	movb %al, %dl
	popq %rax
	orb %dl, %al
	movb %al, %al
	cmpb $0, %al
	jz .L163_elseif_0
	subq $64, %rsp
.loc 6 383 13
	movq $16, %rdi
	call malloc
	movq %rax, %rdi
	movq $0, %rsi
	movq $16, %rdx
	call memset
	movq %rax, %rax
	movq %rax, -28(%rbp)
.loc 6 384 13
	movq -28(%rbp), %rax
	leaq 12(%rax), %rax
	pushq %rax
	movq -8(%rbp), %rax
	movl 12(%rax), %eax
	popq %rbx
	movl %eax, (%rbx)
.loc 6 385 13
	movq -16(%rbp), %rax
	movl 8(%rax), %eax
	movl $20, %edx
	cmpl %edx, %eax
	sete %al
	movb %al, %al
	cmpb $0, %al
	jz .L164_elseif_0
	subq $32, %rsp
.loc 6 386 17
	movq -28(%rbp), %rax
	leaq 8(%rax), %rax
	pushq %rax
	movl $13, %eax
	popq %rbx
	movl %eax, (%rbx)
	jmp .L164_end
	addq $32, %rsp
.L164_elseif_0:
	movq -16(%rbp), %rax
	movl 8(%rax), %eax
	movl $17, %edx
	cmpl %edx, %eax
	sete %al
	movb %al, %al
	cmpb $0, %al
	jz .L164_end
	subq $32, %rsp
.loc 6 389 17
	movq -28(%rbp), %rax
	leaq 8(%rax), %rax
	pushq %rax
	movl $14, %eax
	popq %rbx
	movl %eax, (%rbx)
	jmp .L164_end
	addq $32, %rsp
.L164_end:
.loc 6 391 13
	call consume_next_token
.loc 6 392 13
	movq $16, %rdi
	call malloc
	movq %rax, %rdi
	movq $0, %rsi
	movq $16, %rdx
	call memset
	movq %rax, %rax
	movq %rax, -36(%rbp)
.loc 6 393 13
	leaq -16(%rbp), %rax
	pushq %rax
	subq $8, %rsp
	call get_next_token
	movq %rax, %rax
	addq $8, %rsp
	popq %rbx
	movq %rax, (%rbx)
.loc 6 394 13
	movq -36(%rbp), %rax
	leaq 12(%rax), %rax
	pushq %rax
	movq -16(%rbp), %rax
	movl 12(%rax), %eax
	popq %rbx
	movl %eax, (%rbx)
.loc 6 395 13
	movq -16(%rbp), %rax
	movl 8(%rax), %eax
	movl $0, %edx
	cmpl %edx, %eax
	setne %al
	movb %al, %al
	cmpb $0, %al
	jz .L165_end
	subq $48, %rsp
.loc 6 396 17
	subq $12, %rsp
	movq -16(%rbp), %rax
	movl 12(%rax), %eax
	subq $4, %rsp
	movl %eax, (%rsp)
	call print_location_of_error
	addq $4, %rsp
	addq $12, %rsp
.loc 6 397 17
	subq $8, %rsp
	leaq .str_250(%rip), %rax
	pushq %rax
	call error
	addq $8, %rsp
	addq $8, %rsp
	jmp .L165_end
	addq $48, %rsp
.L165_end:
.loc 6 399 13
	movq -36(%rbp), %rax
	leaq 8(%rax), %rax
	pushq %rax
	movl $9, %eax
	popq %rbx
	movl %eax, (%rbx)
.loc 6 400 13
	movq $8, %rdi
	call malloc
	movq %rax, %rdi
	movq $0, %rsi
	movq $8, %rdx
	call memset
	movq %rax, %rax
	movq %rax, -44(%rbp)
.loc 6 401 13
	movq -44(%rbp), %rax
	leaq (%rax), %rax
	pushq %rax
	movq -16(%rbp), %rax
	movq (%rax), %rax
	popq %rbx
	movq %rax, (%rbx)
.loc 6 402 13
	movq -36(%rbp), %rax
	leaq (%rax), %rax
	pushq %rax
	movq -44(%rbp), %rax
	popq %rbx
	movq %rax, (%rbx)
.loc 6 404 13
	movq $16, %rdi
	call malloc
	movq %rax, %rdi
	movq $0, %rsi
	movq $16, %rdx
	call memset
	movq %rax, %rax
	movq %rax, -52(%rbp)
.loc 6 405 13
	movq -52(%rbp), %rax
	leaq (%rax), %rax
	pushq %rax
	movq -8(%rbp), %rax
	popq %rbx
	movq %rax, (%rbx)
.loc 6 406 13
	movq -52(%rbp), %rax
	leaq 8(%rax), %rax
	pushq %rax
	movq -36(%rbp), %rax
	popq %rbx
	movq %rax, (%rbx)
.loc 6 407 13
	movq -28(%rbp), %rax
	leaq (%rax), %rax
	pushq %rax
	movq -52(%rbp), %rax
	popq %rbx
	movq %rax, (%rbx)
.loc 6 408 13
	leaq -8(%rbp), %rax
	pushq %rax
	movq -28(%rbp), %rax
	popq %rbx
	movq %rax, (%rbx)
	jmp .L163_end
	addq $64, %rsp
.L163_elseif_0:
	movq -16(%rbp), %rax
	movl 8(%rax), %eax
	movl $25, %edx
	cmpl %edx, %eax
	sete %al
	movb %al, %al
	cmpb $0, %al
	jz .L163_elseif_1
	subq $48, %rsp
.loc 6 411 13
	call consume_next_token
.loc 6 413 13
	movq $16, %rdi
	call malloc
	movq %rax, %rdi
	movq $0, %rsi
	movq $16, %rdx
	call memset
	movq %rax, %rax
	movq %rax, -28(%rbp)
.loc 6 414 13
	movq -28(%rbp), %rax
	leaq 12(%rax), %rax
	pushq %rax
	movq -8(%rbp), %rax
	movl 12(%rax), %eax
	popq %rbx
	movl %eax, (%rbx)
.loc 6 415 13
	movq -28(%rbp), %rax
	leaq 8(%rax), %rax
	pushq %rax
	movl $12, %eax
	popq %rbx
	movl %eax, (%rbx)
.loc 6 416 13
	movq $16, %rdi
	call malloc
	movq %rax, %rdi
	movq $0, %rsi
	movq $16, %rdx
	call memset
	movq %rax, %rax
	movq %rax, -36(%rbp)
.loc 6 417 13
	movq -36(%rbp), %rax
	leaq (%rax), %rax
	pushq %rax
	movq -8(%rbp), %rax
	popq %rbx
	movq %rax, (%rbx)
.loc 6 419 13
	movq -36(%rbp), %rax
	leaq 8(%rax), %rax
	pushq %rax
	subq $4, %rsp
	movl $1, %eax
	subq $4, %rsp
	movl %eax, (%rsp)
	call get_expression
	movq %rax, %rax
	addq $4, %rsp
	addq $4, %rsp
	popq %rbx
	movq %rax, (%rbx)
.loc 6 420 13
	subq $12, %rsp
	movl $26, %eax
	subq $4, %rsp
	movl %eax, (%rsp)
	call expect_token
	movq %rax, %rax
	addq $4, %rsp
	addq $12, %rsp
.loc 6 422 13
	movq -28(%rbp), %rax
	leaq (%rax), %rax
	pushq %rax
	movq -36(%rbp), %rax
	popq %rbx
	movq %rax, (%rbx)
.loc 6 423 13
	leaq -8(%rbp), %rax
	pushq %rax
	movq -28(%rbp), %rax
	popq %rbx
	movq %rax, (%rbx)
	jmp .L163_end
	addq $48, %rsp
.L163_elseif_1:
	movq -16(%rbp), %rax
	movl 8(%rax), %eax
	movl $13, %edx
	cmpl %edx, %eax
	sete %al
	movb %al, %al
	cmpb $0, %al
	jz .L163_elseif_2
	subq $48, %rsp
.loc 6 426 13
	call consume_next_token
.loc 6 428 13
	movq $16, %rdi
	call malloc
	movq %rax, %rdi
	movq $0, %rsi
	movq $16, %rdx
	call memset
	movq %rax, %rax
	movq %rax, -28(%rbp)
.loc 6 429 13
	movq -28(%rbp), %rax
	leaq 12(%rax), %rax
	pushq %rax
	movq -8(%rbp), %rax
	movl 12(%rax), %eax
	popq %rbx
	movl %eax, (%rbx)
.loc 6 430 13
	movq -28(%rbp), %rax
	leaq 8(%rax), %rax
	pushq %rax
	movl $4, %eax
	popq %rbx
	movl %eax, (%rbx)
.loc 6 431 13
	movq $16, %rdi
	call malloc
	movq %rax, %rdi
	movq $0, %rsi
	movq $16, %rdx
	call memset
	movq %rax, %rax
	movq %rax, -36(%rbp)
.loc 6 433 13
	leaq -16(%rbp), %rax
	pushq %rax
	subq $4, %rsp
	movl $0, %eax
	subq $4, %rsp
	movl %eax, (%rsp)
	call expect_token
	movq %rax, %rax
	addq $4, %rsp
	addq $4, %rsp
	popq %rbx
	movq %rax, (%rbx)
.loc 6 434 13
	movq -36(%rbp), %rax
	leaq (%rax), %rax
	pushq %rax
	movq -16(%rbp), %rax
	movq (%rax), %rax
	popq %rbx
	movq %rax, (%rbx)
.loc 6 436 13
	subq $12, %rsp
	movl $21, %eax
	subq $4, %rsp
	movl %eax, (%rsp)
	call expect_token
	movq %rax, %rax
	addq $4, %rsp
	addq $12, %rsp
.loc 6 438 13
	movq -36(%rbp), %rax
	leaq 8(%rax), %rax
	pushq %rax
	subq $8, %rsp
	movq $16, %rdi
	call malloc
	movq %rax, %rbx
	movl $0, 8(%rbx)
	movl $4, 12(%rbx)
	movq $32, %rdi
	call malloc
	movq %rax, %rdi
	movq $0, %rsi
	movq $32, %rdx
	call memset
	movq %rax, (%rbx)
	movq %rbx, %rax
	addq $8, %rsp
	popq %rbx
	movq %rax, (%rbx)
.loc 6 439 13
	movq -36(%rbp), %rax
	pushq %rax
	movq -8(%rbp), %rax
	pushq %rax
	call add_argument
	addq $8, %rsp
	addq $8, %rsp
.loc 6 441 13
	subq $48, %rsp
.L166_while_start:
	call peek_next_token
	movq %rax, %rax
	movl 8(%rax), %eax
	movl $22, %edx
	cmpl %edx, %eax
	setne %al
	movb %al, %al
	cmpb $0, %al
	jz .L166_while_end
.loc 6 442 17
	subq $12, %rsp
	movl $1, %eax
	subq $4, %rsp
	movl %eax, (%rsp)
	call get_expression
	movq %rax, %rax
	addq $4, %rsp
	addq $12, %rsp
	movq %rax, -44(%rbp)
.loc 6 443 17
	movq -36(%rbp), %rax
	pushq %rax
	movq -44(%rbp), %rax
	pushq %rax
	call add_argument
	addq $8, %rsp
	addq $8, %rsp
.loc 6 444 17
	call peek_next_token
	movq %rax, %rax
	movl 8(%rax), %eax
	movl $22, %edx
	cmpl %edx, %eax
	setne %al
	movb %al, %al
	cmpb $0, %al
	jz .L167_end
	subq $48, %rsp
.loc 6 445 21
	subq $12, %rsp
	movl $12, %eax
	subq $4, %rsp
	movl %eax, (%rsp)
	call expect_token
	movq %rax, %rax
	addq $4, %rsp
	addq $12, %rsp
	jmp .L167_end
	addq $48, %rsp
.L167_end:
	jmp .L166_while_start
.L166_while_end:
	addq $48, %rsp
.loc 6 449 13
	subq $12, %rsp
	movl $22, %eax
	subq $4, %rsp
	movl %eax, (%rsp)
	call expect_token
	movq %rax, %rax
	addq $4, %rsp
	addq $12, %rsp
.loc 6 451 13
	movq -28(%rbp), %rax
	leaq (%rax), %rax
	pushq %rax
	movq -36(%rbp), %rax
	popq %rbx
	movq %rax, (%rbx)
.loc 6 452 13
	leaq -8(%rbp), %rax
	pushq %rax
	movq -28(%rbp), %rax
	popq %rbx
	movq %rax, (%rbx)
	jmp .L163_end
	addq $48, %rsp
.L163_elseif_2:
	movq -16(%rbp), %rax
	movl 8(%rax), %eax
	movl $14, %edx
	cmpl %edx, %eax
	sete %al
	movb %al, %al
	cmpb $0, %al
	jz .L163_elseif_3
	subq $48, %rsp
.loc 6 455 13
	call consume_next_token
.loc 6 457 13
	movq $16, %rdi
	call malloc
	movq %rax, %rdi
	movq $0, %rsi
	movq $16, %rdx
	call memset
	movq %rax, %rax
	movq %rax, -28(%rbp)
.loc 6 458 13
	movq -28(%rbp), %rax
	leaq 12(%rax), %rax
	pushq %rax
	movq -8(%rbp), %rax
	movl 12(%rax), %eax
	popq %rbx
	movl %eax, (%rbx)
.loc 6 459 13
	movq -28(%rbp), %rax
	leaq 8(%rax), %rax
	pushq %rax
	movl $16, %eax
	popq %rbx
	movl %eax, (%rbx)
.loc 6 460 13
	movq $17, %rdi
	call malloc
	movq %rax, %rdi
	movq $0, %rsi
	movq $17, %rdx
	call memset
	movq %rax, %rax
	movq %rax, -36(%rbp)
.loc 6 461 13
	movq -36(%rbp), %rax
	leaq (%rax), %rax
	pushq %rax
	movq -8(%rbp), %rax
	popq %rbx
	movq %rax, (%rbx)
.loc 6 462 13
	movq -36(%rbp), %rax
	leaq 8(%rax), %rax
	pushq %rax
	subq $4, %rsp
	movl $1, %eax
	subq $4, %rsp
	movl %eax, (%rsp)
	call get_expression
	movq %rax, %rax
	addq $4, %rsp
	addq $4, %rsp
	popq %rbx
	movq %rax, (%rbx)
.loc 6 463 13
	call peek_next_token
	movq %rax, %rax
	movl 8(%rax), %eax
	movl $5, %edx
	cmpl %edx, %eax
	sete %al
	movb %al, %al
	cmpb $0, %al
	jz .L168_else
	subq $48, %rsp
.loc 6 464 17
	call consume_next_token
.loc 6 465 17
	movq -36(%rbp), %rax
	leaq 16(%rax), %rax
	pushq %rax
	movb $1, %al
	popq %rbx
	movb %al, (%rbx)
	jmp .L168_end
	addq $48, %rsp
.L168_else:
	subq $48, %rsp
.loc 6 468 17
	movq -36(%rbp), %rax
	leaq 16(%rax), %rax
	pushq %rax
	movb $0, %al
	popq %rbx
	movb %al, (%rbx)
	jmp .L168_end
	addq $48, %rsp
.L168_end:
.loc 6 470 13
	movq -28(%rbp), %rax
	leaq (%rax), %rax
	pushq %rax
	movq -36(%rbp), %rax
	popq %rbx
	movq %rax, (%rbx)
.loc 6 471 13
	leaq -8(%rbp), %rax
	pushq %rax
	movq -28(%rbp), %rax
	popq %rbx
	movq %rax, (%rbx)
	jmp .L163_end
	addq $48, %rsp
.L163_elseif_3:
	movq -16(%rbp), %rax
	movl 8(%rax), %eax
	movl $19, %edx
	cmpl %edx, %eax
	sete %al
	movb %al, %al
	cmpb $0, %al
	jz .L163_else
	subq $48, %rsp
.loc 6 474 13
	call consume_next_token
.loc 6 476 13
	movq $16, %rdi
	call malloc
	movq %rax, %rdi
	movq $0, %rsi
	movq $16, %rdx
	call memset
	movq %rax, %rax
	movq %rax, -28(%rbp)
.loc 6 477 13
	movq -28(%rbp), %rax
	leaq 12(%rax), %rax
	pushq %rax
	movq -8(%rbp), %rax
	movl 12(%rax), %eax
	popq %rbx
	movl %eax, (%rbx)
.loc 6 478 13
	movq -28(%rbp), %rax
	leaq 8(%rax), %rax
	pushq %rax
	movl $15, %eax
	popq %rbx
	movl %eax, (%rbx)
.loc 6 479 13
	movq $12, %rdi
	call malloc
	movq %rax, %rdi
	movq $0, %rsi
	movq $12, %rdx
	call memset
	movq %rax, %rax
	movq %rax, -36(%rbp)
.loc 6 480 13
	movq -36(%rbp), %rax
	leaq (%rax), %rax
	pushq %rax
	movq -8(%rbp), %rax
	popq %rbx
	movq %rax, (%rbx)
.loc 6 481 13
	movq -36(%rbp), %rax
	leaq 8(%rax), %rax
	pushq %rax
	subq $8, %rsp
	call parse_type
	movl %eax, %eax
	addq $8, %rsp
	popq %rbx
	movl %eax, (%rbx)
.loc 6 483 13
	movq -28(%rbp), %rax
	leaq (%rax), %rax
	pushq %rax
	movq -36(%rbp), %rax
	popq %rbx
	movq %rax, (%rbx)
.loc 6 484 13
	leaq -8(%rbp), %rax
	pushq %rax
	movq -28(%rbp), %rax
	popq %rbx
	movq %rax, (%rbx)
	jmp .L163_end
	addq $48, %rsp
.L163_else:
	subq $48, %rsp
.loc 6 487 13
	call consume_next_token
.loc 6 489 13
	subq $12, %rsp
	movl -20(%rbp), %eax
	movl $1, %edx
	addl %edx, %eax
	movl %eax, %eax
	subq $4, %rsp
	movl %eax, (%rsp)
	call get_expression
	movq %rax, %rax
	addq $4, %rsp
	addq $12, %rsp
	movq %rax, -28(%rbp)
.loc 6 490 13
	movq $16, %rdi
	call malloc
	movq %rax, %rdi
	movq $0, %rsi
	movq $16, %rdx
	call memset
	movq %rax, %rax
	movq %rax, -36(%rbp)
.loc 6 491 13
	movq -36(%rbp), %rax
	leaq 12(%rax), %rax
	pushq %rax
	movq -8(%rbp), %rax
	movl 12(%rax), %eax
	popq %rbx
	movl %eax, (%rbx)
.loc 6 492 13
	movq -36(%rbp), %rax
	leaq 8(%rax), %rax
	pushq %rax
	movl $5, %eax
	popq %rbx
	movl %eax, (%rbx)
.loc 6 493 13
	movq $20, %rdi
	call malloc
	movq %rax, %rdi
	movq $0, %rsi
	movq $20, %rdx
	call memset
	movq %rax, %rax
	movq %rax, -44(%rbp)
.loc 6 494 13
	movq -44(%rbp), %rax
	leaq (%rax), %rax
	pushq %rax
	movq -16(%rbp), %rax
	movl 8(%rax), %eax
	popq %rbx
	movl %eax, (%rbx)
.loc 6 495 13
	movq -44(%rbp), %rax
	leaq 4(%rax), %rax
	pushq %rax
	movq -8(%rbp), %rax
	popq %rbx
	movq %rax, (%rbx)
.loc 6 496 13
	movq -44(%rbp), %rax
	leaq 12(%rax), %rax
	pushq %rax
	movq -28(%rbp), %rax
	popq %rbx
	movq %rax, (%rbx)
.loc 6 497 13
	movq -36(%rbp), %rax
	leaq (%rax), %rax
	pushq %rax
	movq -44(%rbp), %rax
	popq %rbx
	movq %rax, (%rbx)
.loc 6 498 13
	leaq -8(%rbp), %rax
	pushq %rax
	movq -36(%rbp), %rax
	popq %rbx
	movq %rax, (%rbx)
	jmp .L163_end
	addq $48, %rsp
.L163_end:
	jmp .L161_while_start
.L161_while_end:
	addq $32, %rsp
	movq -8(%rbp), %rax
	addq $16, %rsp
	leave
.cfi_def_cfa 7, 8
	ret
	addq $16, %rsp
	leave
.cfi_def_cfa 7, 8
	ret
.cfi_endproc
.loc 6 504 1
.loc 6 506 1
.globl get_statement
get_statement:
.cfi_startproc
	pushq %rbp
.cfi_def_cfa_offset 16
.cfi_offset 6, -16
	movq %rsp, %rbp
.cfi_def_cfa_register 6
	subq $16, %rsp
.loc 6 507 5
	movq $16, %rdi
	call malloc
	movq %rax, %rdi
	movq $0, %rsi
	movq $16, %rdx
	call memset
	movq %rax, %rax
	movq %rax, -8(%rbp)
.loc 6 509 5
	call get_next_token
	movq %rax, %rax
	movq %rax, -16(%rbp)
.loc 6 510 5
	movq -8(%rbp), %rax
	leaq 12(%rax), %rax
	pushq %rax
	movq -16(%rbp), %rax
	movl 12(%rax), %eax
	popq %rbx
	movl %eax, (%rbx)
.loc 6 512 5
	movq -16(%rbp), %rax
	movl 8(%rax), %eax
	movl $47, %edx
	cmpl %edx, %eax
	sete %al
	movb %al, %al
	pushq %rax
	movq -16(%rbp), %rax
	movl 8(%rax), %eax
	movl $48, %edx
	cmpl %edx, %eax
	sete %al
	movb %al, %dl
	popq %rax
	orb %dl, %al
	movb %al, %al
	cmpb $0, %al
	jz .L169_elseif_0
	subq $32, %rsp
.loc 6 513 9
	movq -16(%rbp), %rax
	movl 8(%rax), %eax
	movl $48, %edx
	cmpl %edx, %eax
	sete %al
	movb %al, %al
	cmpb $0, %al
	jz .L170_end
	subq $32, %rsp
.loc 6 514 13
	movl $1, %eax
	movl %eax, -20(%rbp)
.loc 6 515 13
	call peek_next_token
	movq %rax, %rax
	movl 8(%rax), %eax
	movl $16, %edx
	cmpl %edx, %eax
	sete %al
	movb %al, %al
	cmpb $0, %al
	jz .L171_end
	subq $32, %rsp
.loc 6 516 17
	call consume_next_token
.loc 6 517 17
	leaq -20(%rbp), %rax
	pushq %rax
	subq $8, %rsp
	call parse_type
	movl %eax, %eax
	addq $8, %rsp
	popq %rbx
	movl %eax, (%rbx)
	jmp .L171_end
	addq $32, %rsp
.L171_end:
.loc 6 520 13
	call peek_next_token
	movq %rax, %rax
	movl 8(%rax), %eax
	movl $23, %edx
	cmpl %edx, %eax
	sete %al
	movb %al, %al
	cmpb $0, %al
	jz .L172_end
	subq $32, %rsp
.loc 6 521 17
	call consume_next_token
.loc 6 523 17
	movl $0, %eax
	movslq %eax, %rax
	movq %rax, -28(%rbp)
.loc 6 525 17
	subq $32, %rsp
.L173_while_start:
	call peek_next_token
	movq %rax, %rax
	movl 8(%rax), %eax
	movl $24, %edx
	cmpl %edx, %eax
	setne %al
	movb %al, %al
	cmpb $0, %al
	jz .L173_while_end
.loc 6 526 21
	leaq -16(%rbp), %rax
	pushq %rax
	subq $4, %rsp
	movl $0, %eax
	subq $4, %rsp
	movl %eax, (%rsp)
	call expect_token
	movq %rax, %rax
	addq $4, %rsp
	addq $4, %rsp
	popq %rbx
	movq %rax, (%rbx)
.loc 6 528 21
	movl -20(%rbp), %eax
	movl $1, %edx
	cmpl %edx, %eax
	sete %al
	movb %al, %al
	cmpb $0, %al
	jz .L174_elseif_0
	subq $48, %rsp
.loc 6 529 25
	movq $4, %rdi
	call malloc
	movq %rax, %rdi
	movq $0, %rsi
	movq $4, %rdx
	call memset
	movq %rax, %rax
	movq %rax, -36(%rbp)
.loc 6 530 25
	movq -36(%rbp), %rax
	movq %rax, %rax
	movq %rax, %rax
	pushq %rax
	movq -28(%rbp), %rax
	popq %rbx
	movl %eax, (%rbx)
.loc 6 532 25
	subq $4, %rsp
	movq .global_scope(%rip), %rax
	pushq %rax
	movq -16(%rbp), %rax
	movq (%rax), %rax
	pushq %rax
	movq -36(%rbp), %rax
	pushq %rax
	movl $1, %eax
	subq $4, %rsp
	movl %eax, (%rsp)
	call to_const
	movl %eax, %eax
	addq $4, %rsp
	subq $4, %rsp
	movl %eax, (%rsp)
	call add_global_variable
	addq $8, %rsp
	addq $8, %rsp
	addq $8, %rsp
	addq $4, %rsp
	addq $4, %rsp
.loc 6 533 25
	leaq -28(%rbp), %rax
	pushq %rax
	movq -28(%rbp), %rax
	movl $1, %edx
	movslq %edx, %rdx
	addq %rdx, %rax
	popq %rbx
	movq %rax, (%rbx)
	jmp .L174_end
	addq $48, %rsp
.L174_elseif_0:
	movl -20(%rbp), %eax
	movl $2, %edx
	cmpl %edx, %eax
	sete %al
	movb %al, %al
	cmpb $0, %al
	jz .L174_elseif_1
	subq $48, %rsp
.loc 6 536 25
	movq $8, %rdi
	call malloc
	movq %rax, %rdi
	movq $0, %rsi
	movq $8, %rdx
	call memset
	movq %rax, %rax
	movq %rax, -36(%rbp)
.loc 6 537 25
	movq -36(%rbp), %rax
	movq %rax, %rax
	movq %rax, %rax
	pushq %rax
	movq -28(%rbp), %rax
	popq %rbx
	movq %rax, (%rbx)
.loc 6 539 25
	subq $4, %rsp
	movq .global_scope(%rip), %rax
	pushq %rax
	movq -16(%rbp), %rax
	movq (%rax), %rax
	pushq %rax
	movq -36(%rbp), %rax
	pushq %rax
	movl $2, %eax
	subq $4, %rsp
	movl %eax, (%rsp)
	call to_const
	movl %eax, %eax
	addq $4, %rsp
	subq $4, %rsp
	movl %eax, (%rsp)
	call add_global_variable
	addq $8, %rsp
	addq $8, %rsp
	addq $8, %rsp
	addq $4, %rsp
	addq $4, %rsp
.loc 6 540 25
	leaq -28(%rbp), %rax
	pushq %rax
	movq -28(%rbp), %rax
	movl $1, %edx
	movslq %edx, %rdx
	addq %rdx, %rax
	popq %rbx
	movq %rax, (%rbx)
	jmp .L174_end
	addq $48, %rsp
.L174_elseif_1:
	movl -20(%rbp), %eax
	movl $3, %edx
	cmpl %edx, %eax
	sete %al
	movb %al, %al
	cmpb $0, %al
	jz .L174_else
	subq $48, %rsp
.loc 6 543 25
	movq $1, %rdi
	call malloc
	movq %rax, %rdi
	movq $0, %rsi
	movq $1, %rdx
	call memset
	movq %rax, %rax
	movq %rax, -36(%rbp)
.loc 6 544 25
	movq -36(%rbp), %rax
	movq %rax, %rax
	movq %rax, %rax
	pushq %rax
	movq -28(%rbp), %rax
	popq %rbx
	movb %al, (%rbx)
.loc 6 546 25
	subq $4, %rsp
	movq .global_scope(%rip), %rax
	pushq %rax
	movq -16(%rbp), %rax
	movq (%rax), %rax
	pushq %rax
	movq -36(%rbp), %rax
	pushq %rax
	movl $3, %eax
	subq $4, %rsp
	movl %eax, (%rsp)
	call to_const
	movl %eax, %eax
	addq $4, %rsp
	subq $4, %rsp
	movl %eax, (%rsp)
	call add_global_variable
	addq $8, %rsp
	addq $8, %rsp
	addq $8, %rsp
	addq $4, %rsp
	addq $4, %rsp
.loc 6 547 25
	leaq -28(%rbp), %rax
	pushq %rax
	movq -28(%rbp), %rax
	movl $1, %edx
	movslq %edx, %rdx
	addq %rdx, %rax
	popq %rbx
	movq %rax, (%rbx)
	jmp .L174_end
	addq $48, %rsp
.L174_else:
	subq $32, %rsp
.loc 6 550 25
	subq $12, %rsp
	movq -16(%rbp), %rax
	movl 12(%rax), %eax
	subq $4, %rsp
	movl %eax, (%rsp)
	call print_location_of_error
	addq $4, %rsp
	addq $12, %rsp
.loc 6 551 25
	subq $8, %rsp
	leaq .str_251(%rip), %rax
	pushq %rax
	subq $12, %rsp
	movl -20(%rbp), %eax
	subq $4, %rsp
	movl %eax, (%rsp)
	call debug_variable_type_name
	movq %rax, %rdx
	addq $4, %rsp
	addq $12, %rsp
	popq %rax
	pushq %rdx
	pushq %rax
	movq $64, %rdi
	call malloc
	movq %rax, %r15
	movq $0, %r14
	movq $64, %r13
	popq %r12
	call __append_string_to_builder
	popq %r12
	subq $8, %rsp
	call __append_string_to_builder
	addq $8, %rsp
	movq %r15, %rax
	movq %rax, %rax
	leaq .str_252(%rip), %rdx
	movq %rdx, %r12
	subq $8, %rsp
	call __append_string_to_builder
	addq $8, %rsp
	movq %r15, %rax
	movq %rax, %rax
	pushq %rax
	call error
	addq $8, %rsp
	addq $8, %rsp
	jmp .L174_end
	addq $32, %rsp
.L174_end:
.loc 6 554 21
	call peek_next_token
	movq %rax, %rax
	movl 8(%rax), %eax
	movl $24, %edx
	cmpl %edx, %eax
	setne %al
	movb %al, %al
	cmpb $0, %al
	jz .L178_end
	subq $32, %rsp
.loc 6 555 25
	subq $12, %rsp
	movl $12, %eax
	subq $4, %rsp
	movl %eax, (%rsp)
	call expect_token
	movq %rax, %rax
	addq $4, %rsp
	addq $12, %rsp
	jmp .L178_end
	addq $32, %rsp
.L178_end:
	jmp .L173_while_start
.L173_while_end:
	addq $32, %rsp
.loc 6 558 17
	subq $12, %rsp
	movl $24, %eax
	subq $4, %rsp
	movl %eax, (%rsp)
	call expect_token
	movq %rax, %rax
	addq $4, %rsp
	addq $12, %rsp
.loc 6 559 17
	subq $12, %rsp
	movl $15, %eax
	subq $4, %rsp
	movl %eax, (%rsp)
	call expect_token
	movq %rax, %rax
	addq $4, %rsp
	addq $12, %rsp
.loc 6 560 17
	movq -8(%rbp), %rax
	leaq 8(%rax), %rax
	pushq %rax
	movl $19, %eax
	popq %rbx
	movl %eax, (%rbx)
.loc 6 561 17
	movq -8(%rbp), %rax
	addq $32, %rsp
	leave
.cfi_def_cfa 7, 8
	ret
	jmp .L172_end
	addq $32, %rsp
.L172_end:
	jmp .L170_end
	addq $32, %rsp
.L170_end:
.loc 6 564 9
	movq -8(%rbp), %rax
	leaq 8(%rax), %rax
	pushq %rax
	movl $20, %eax
	popq %rbx
	movl %eax, (%rbx)
.loc 6 566 9
	movq $29, %rdi
	call malloc
	movq %rax, %rdi
	movq $0, %rsi
	movq $29, %rdx
	call memset
	movq %rax, %rax
	movq %rax, -24(%rbp)
.loc 6 567 9
	movq -24(%rbp), %rax
	leaq 28(%rax), %rax
	pushq %rax
	movq -16(%rbp), %rax
	movl 8(%rax), %eax
	movl $48, %edx
	cmpl %edx, %eax
	sete %al
	popq %rbx
	movb %al, (%rbx)
.loc 6 568 9
	movq -24(%rbp), %rax
	leaq 24(%rax), %rax
	pushq %rax
	movl $0, %eax
	popq %rbx
	movl %eax, (%rbx)
.loc 6 569 9
	movq -24(%rbp), %rax
	leaq 8(%rax), %rax
	pushq %rax
	movl $0, %eax
	movslq %eax, %rax
	popq %rbx
	movq %rax, (%rbx)
.loc 6 570 9
	movq -24(%rbp), %rax
	leaq 16(%rax), %rax
	pushq %rax
	movl $0, %eax
	movslq %eax, %rax
	popq %rbx
	movq %rax, (%rbx)
.loc 6 571 9
	leaq -16(%rbp), %rax
	pushq %rax
	subq $4, %rsp
	movl $0, %eax
	subq $4, %rsp
	movl %eax, (%rsp)
	call expect_token
	movq %rax, %rax
	addq $4, %rsp
	addq $4, %rsp
	popq %rbx
	movq %rax, (%rbx)
.loc 6 573 9
	call peek_next_token
	movq %rax, %rax
	movl 8(%rax), %eax
	movl $16, %edx
	cmpl %edx, %eax
	sete %al
	movb %al, %al
	cmpb $0, %al
	jz .L179_end
	subq $32, %rsp
.loc 6 574 13
	call consume_next_token
.loc 6 575 13
	movq -24(%rbp), %rax
	leaq 24(%rax), %rax
	pushq %rax
	subq $8, %rsp
	call parse_type
	movl %eax, %eax
	addq $8, %rsp
	popq %rbx
	movl %eax, (%rbx)
	jmp .L179_end
	addq $32, %rsp
.L179_end:
.loc 6 578 9
	movq -24(%rbp), %rax
	leaq (%rax), %rax
	pushq %rax
	movq -16(%rbp), %rax
	movq (%rax), %rax
	popq %rbx
	movq %rax, (%rbx)
.loc 6 580 9
	call peek_next_token
	movq %rax, %rax
	movl 8(%rax), %eax
	movl $5, %edx
	cmpl %edx, %eax
	sete %al
	movb %al, %al
	cmpb $0, %al
	jz .L180_end
	subq $32, %rsp
.loc 6 581 13
	call consume_next_token
.loc 6 583 13
	movq -24(%rbp), %rax
	leaq 16(%rax), %rax
	pushq %rax
	subq $4, %rsp
	movl $1, %eax
	subq $4, %rsp
	movl %eax, (%rsp)
	call get_expression
	movq %rax, %rax
	addq $4, %rsp
	addq $4, %rsp
	popq %rbx
	movq %rax, (%rbx)
	jmp .L180_end
	addq $32, %rsp
.L180_end:
.loc 6 585 9
	movq -8(%rbp), %rax
	leaq (%rax), %rax
	pushq %rax
	movq -24(%rbp), %rax
	popq %rbx
	movq %rax, (%rbx)
.loc 6 587 9
	subq $12, %rsp
	movl $15, %eax
	subq $4, %rsp
	movl %eax, (%rsp)
	call expect_token
	movq %rax, %rax
	addq $4, %rsp
	addq $12, %rsp
	jmp .L169_end
	addq $32, %rsp
.L169_elseif_0:
	movq -16(%rbp), %rax
	movl 8(%rax), %eax
	movl $27, %edx
	cmpl %edx, %eax
	sete %al
	movb %al, %al
	cmpb $0, %al
	jz .L169_elseif_1
	subq $32, %rsp
.loc 6 590 9
	movq -8(%rbp), %rax
	leaq 8(%rax), %rax
	pushq %rax
	movl $22, %eax
	popq %rbx
	movl %eax, (%rbx)
.loc 6 591 9
	subq $12, %rsp
	movl $21, %eax
	subq $4, %rsp
	movl %eax, (%rsp)
	call expect_token
	movq %rax, %rax
	addq $4, %rsp
	addq $12, %rsp
.loc 6 593 9
	movq $44, %rdi
	call malloc
	movq %rax, %rdi
	movq $0, %rsi
	movq $44, %rdx
	call memset
	movq %rax, %rax
	movq %rax, -24(%rbp)
.loc 6 594 9
	movq -24(%rbp), %rax
	leaq 32(%rax), %rax
	pushq %rax
	subq $8, %rsp
	movq $16, %rdi
	call malloc
	movq %rax, %rbx
	movl $0, 8(%rbx)
	movl $4, 12(%rbx)
	movq $32, %rdi
	call malloc
	movq %rax, %rdi
	movq $0, %rsi
	movq $32, %rdx
	call memset
	movq %rax, (%rbx)
	movq %rbx, %rax
	addq $8, %rsp
	popq %rbx
	movq %rax, (%rbx)
.loc 6 595 9
	movq -24(%rbp), %rax
	leaq 24(%rax), %rax
	pushq %rax
	subq $8, %rsp
	movq $16, %rdi
	call malloc
	movq %rax, %rbx
	movl $0, 8(%rbx)
	movl $4, 12(%rbx)
	movq $32, %rdi
	call malloc
	movq %rax, %rdi
	movq $0, %rsi
	movq $32, %rdx
	call memset
	movq %rax, (%rbx)
	movq %rbx, %rax
	addq $8, %rsp
	popq %rbx
	movq %rax, (%rbx)
.loc 6 596 9
	movq -24(%rbp), %rax
	leaq (%rax), %rax
	pushq %rax
	subq $4, %rsp
	movl $1, %eax
	subq $4, %rsp
	movl %eax, (%rsp)
	call get_expression
	movq %rax, %rax
	addq $4, %rsp
	addq $4, %rsp
	popq %rbx
	movq %rax, (%rbx)
.loc 6 597 9
	subq $12, %rsp
	movl $22, %eax
	subq $4, %rsp
	movl %eax, (%rsp)
	call expect_token
	movq %rax, %rax
	addq $4, %rsp
	addq $12, %rsp
.loc 6 599 9
	subq $12, %rsp
	movl $23, %eax
	subq $4, %rsp
	movl %eax, (%rsp)
	call expect_token
	movq %rax, %rax
	addq $4, %rsp
	addq $12, %rsp
.loc 6 600 9
	movq -24(%rbp), %rax
	leaq 8(%rax), %rax
	pushq %rax
	subq $8, %rsp
	call get_block
	movq %rax, %rax
	addq $8, %rsp
	popq %rbx
	movq %rax, (%rbx)
.loc 6 601 9
	subq $12, %rsp
	movl $24, %eax
	subq $4, %rsp
	movl %eax, (%rsp)
	call expect_token
	movq %rax, %rax
	addq $4, %rsp
	addq $12, %rsp
.loc 6 603 9
	subq $48, %rsp
.L181_while_start:
	call peek_next_token
	movq %rax, %rax
	movl 8(%rax), %eax
	movl $29, %edx
	cmpl %edx, %eax
	sete %al
	movb %al, %al
	cmpb $0, %al
	jz .L181_while_end
.loc 6 604 13
	call consume_next_token
.loc 6 606 13
	subq $12, %rsp
	movl $21, %eax
	subq $4, %rsp
	movl %eax, (%rsp)
	call expect_token
	movq %rax, %rax
	addq $4, %rsp
	addq $12, %rsp
.loc 6 607 13
	subq $12, %rsp
	movl $1, %eax
	subq $4, %rsp
	movl %eax, (%rsp)
	call get_expression
	movq %rax, %rax
	addq $4, %rsp
	addq $12, %rsp
	movq %rax, -32(%rbp)
.loc 6 608 13
	subq $12, %rsp
	movl $22, %eax
	subq $4, %rsp
	movl %eax, (%rsp)
	call expect_token
	movq %rax, %rax
	addq $4, %rsp
	addq $12, %rsp
.loc 6 610 13
	subq $12, %rsp
	movl $23, %eax
	subq $4, %rsp
	movl %eax, (%rsp)
	call expect_token
	movq %rax, %rax
	addq $4, %rsp
	addq $12, %rsp
.loc 6 611 13
	call get_block
	movq %rax, %rax
	movq %rax, -40(%rbp)
.loc 6 612 13
	subq $12, %rsp
	movl $24, %eax
	subq $4, %rsp
	movl %eax, (%rsp)
	call expect_token
	movq %rax, %rax
	addq $4, %rsp
	addq $12, %rsp
.loc 6 614 13
	movq -24(%rbp), %rax
	movq 32(%rax), %rax
	pushq %rax
	movq -40(%rbp), %rbx
	popq %rax
	call __append_quad
	movq (%rax), %rax
	addl $1, 8(%r12)
.loc 6 615 13
	movq -24(%rbp), %rax
	movq 24(%rax), %rax
	pushq %rax
	movq -32(%rbp), %rbx
	popq %rax
	call __append_quad
	movq (%rax), %rax
	addl $1, 8(%r12)
.loc 6 616 13
	movq -24(%rbp), %rax
	leaq 40(%rax), %rax
	pushq %rax
	movq -24(%rbp), %rax
	movl 40(%rax), %eax
	movl $1, %edx
	addl %edx, %eax
	popq %rbx
	movl %eax, (%rbx)
	jmp .L181_while_start
.L181_while_end:
	addq $48, %rsp
.loc 6 618 9
	call peek_next_token
	movq %rax, %rax
	movl 8(%rax), %eax
	movl $28, %edx
	cmpl %edx, %eax
	sete %al
	movb %al, %al
	cmpb $0, %al
	jz .L184_end
	subq $32, %rsp
.loc 6 619 13
	call consume_next_token
.loc 6 621 13
	subq $12, %rsp
	movl $23, %eax
	subq $4, %rsp
	movl %eax, (%rsp)
	call expect_token
	movq %rax, %rax
	addq $4, %rsp
	addq $12, %rsp
.loc 6 622 13
	movq -24(%rbp), %rax
	leaq 16(%rax), %rax
	pushq %rax
	subq $8, %rsp
	call get_block
	movq %rax, %rax
	addq $8, %rsp
	popq %rbx
	movq %rax, (%rbx)
.loc 6 623 13
	subq $12, %rsp
	movl $24, %eax
	subq $4, %rsp
	movl %eax, (%rsp)
	call expect_token
	movq %rax, %rax
	addq $4, %rsp
	addq $12, %rsp
	jmp .L184_end
	addq $32, %rsp
.L184_end:
.loc 6 626 9
	movq -8(%rbp), %rax
	leaq (%rax), %rax
	pushq %rax
	movq -24(%rbp), %rax
	popq %rbx
	movq %rax, (%rbx)
	jmp .L169_end
	addq $32, %rsp
.L169_elseif_1:
	movq -16(%rbp), %rax
	movl 8(%rax), %eax
	movl $46, %edx
	cmpl %edx, %eax
	sete %al
	movb %al, %al
	cmpb $0, %al
	jz .L169_elseif_2
	subq $48, %rsp
.loc 6 629 9
	movq -8(%rbp), %rax
	leaq 8(%rax), %rax
	pushq %rax
	movl $21, %eax
	popq %rbx
	movl %eax, (%rbx)
.loc 6 630 9
	movq $24, %rdi
	call malloc
	movq %rax, %rdi
	movq $0, %rsi
	movq $24, %rdx
	call memset
	movq %rax, %rax
	movq %rax, -24(%rbp)
.loc 6 631 9
	subq $8, %rsp
	movq .function_registry(%rip), %rax
	pushq %rax
	call add_signature
	movq %rax, %rax
	addq $8, %rsp
	addq $8, %rsp
	movq %rax, -32(%rbp)
.loc 6 633 9
	leaq -16(%rbp), %rax
	pushq %rax
	subq $8, %rsp
	call get_next_token
	movq %rax, %rax
	addq $8, %rsp
	popq %rbx
	movq %rax, (%rbx)
.loc 6 634 9
	movq -24(%rbp), %rax
	leaq (%rax), %rax
	pushq %rax
	movq -16(%rbp), %rax
	movq (%rax), %rax
	popq %rbx
	movq %rax, (%rbx)
.loc 6 635 9
	movq -32(%rbp), %rax
	leaq (%rax), %rax
	pushq %rax
	movq -16(%rbp), %rax
	movq (%rax), %rax
	popq %rbx
	movq %rax, (%rbx)
.loc 6 636 9
	movq -24(%rbp), %rax
	leaq 16(%rax), %rax
	pushq %rax
	movq -32(%rbp), %rax
	popq %rbx
	movq %rax, (%rbx)
.loc 6 638 9
	subq $12, %rsp
	movl $21, %eax
	subq $4, %rsp
	movl %eax, (%rsp)
	call expect_token
	movq %rax, %rax
	addq $4, %rsp
	addq $12, %rsp
.loc 6 639 9
	subq $48, %rsp
.L185_while_start:
	call peek_next_token
	movq %rax, %rax
	movl 8(%rax), %eax
	movl $22, %edx
	cmpl %edx, %eax
	setne %al
	movb %al, %al
	cmpb $0, %al
	jz .L185_while_end
.loc 6 640 13
	subq $12, %rsp
	movl $0, %eax
	subq $4, %rsp
	movl %eax, (%rsp)
	call expect_token
	movq %rax, %rax
	addq $4, %rsp
	addq $12, %rsp
	movq (%rax), %rax
	movq %rax, -40(%rbp)
.loc 6 641 13
	subq $12, %rsp
	movl $16, %eax
	subq $4, %rsp
	movl %eax, (%rsp)
	call expect_token
	movq %rax, %rax
	addq $4, %rsp
	addq $12, %rsp
.loc 6 643 13
	call parse_type
	movl %eax, %eax
	movl %eax, -44(%rbp)
.loc 6 644 13
	subq $12, %rsp
	movq -32(%rbp), %rax
	pushq %rax
	movq -40(%rbp), %rax
	pushq %rax
	movl -44(%rbp), %eax
	subq $4, %rsp
	movl %eax, (%rsp)
	call add_parameter
	addq $8, %rsp
	addq $8, %rsp
	addq $4, %rsp
	addq $12, %rsp
.loc 6 645 13
	call peek_next_token
	movq %rax, %rax
	movl 8(%rax), %eax
	movl $22, %edx
	cmpl %edx, %eax
	setne %al
	movb %al, %al
	cmpb $0, %al
	jz .L186_end
	subq $48, %rsp
.loc 6 646 17
	subq $12, %rsp
	movl $12, %eax
	subq $4, %rsp
	movl %eax, (%rsp)
	call expect_token
	movq %rax, %rax
	addq $4, %rsp
	addq $12, %rsp
	jmp .L186_end
	addq $48, %rsp
.L186_end:
	jmp .L185_while_start
.L185_while_end:
	addq $48, %rsp
.loc 6 650 9
	leaq -16(%rbp), %rax
	pushq %rax
	subq $4, %rsp
	movl $22, %eax
	subq $4, %rsp
	movl %eax, (%rsp)
	call expect_token
	movq %rax, %rax
	addq $4, %rsp
	addq $4, %rsp
	popq %rbx
	movq %rax, (%rbx)
.loc 6 652 9
	movl $9, %eax
	movl %eax, -36(%rbp)
.loc 6 653 9
	call peek_next_token
	movq %rax, %rax
	movl 8(%rax), %eax
	movl $16, %edx
	cmpl %edx, %eax
	sete %al
	movb %al, %al
	cmpb $0, %al
	jz .L187_end
	subq $48, %rsp
.loc 6 654 13
	call consume_next_token
.loc 6 655 13
	leaq -36(%rbp), %rax
	pushq %rax
	subq $8, %rsp
	call parse_type
	movl %eax, %eax
	addq $8, %rsp
	popq %rbx
	movl %eax, (%rbx)
	jmp .L187_end
	addq $48, %rsp
.L187_end:
.loc 6 658 9
	movq -32(%rbp), %rax
	leaq 16(%rax), %rax
	pushq %rax
	movl -36(%rbp), %eax
	popq %rbx
	movl %eax, (%rbx)
.loc 6 660 9
	movl $16, %eax
	movl %eax, -40(%rbp)
.loc 6 661 9
	subq $64, %rsp
.loc 6 661 14
	movq -32(%rbp), %rax
	movq 8(%rax), %rax
	movl 8(%rax), %eax
	movl $1, %edx
	subl %edx, %eax
	movl %eax, -44(%rbp)
.L188_for_start:
	movl -44(%rbp), %eax
	movl $0, %edx
	cmpl %edx, %eax
	setge %al
	movb %al, %al
	cmpb $0, %al
	jz .L188_for_end
.loc 6 662 13
	movq -32(%rbp), %rax
	movq 8(%rax), %rax
	movq (%rax), %rax
	pushq %rax
	movl -44(%rbp), %edx
	popq %rax
	leaq (%rax, %rdx, 8), %rax
	movq (%rax), %rax
	movq %rax, -52(%rbp)
.loc 6 663 13
	movq -52(%rbp), %rax
	leaq 8(%rax), %rax
	pushq %rax
	movl -40(%rbp), %eax
	popq %rbx
	movl %eax, (%rbx)
.loc 6 664 13
	leaq -40(%rbp), %rax
	pushq %rax
	movl -40(%rbp), %eax
	pushq %rax
	subq $12, %rsp
	movq -52(%rbp), %rax
	movl 12(%rax), %eax
	subq $4, %rsp
	movl %eax, (%rsp)
	call get_size
	movl %eax, %edx
	addq $4, %rsp
	addq $12, %rsp
	popq %rax
	addl %edx, %eax
	popq %rbx
	movl %eax, (%rbx)
.L188_for_inc:
.loc 6 661 72
	leaq -44(%rbp), %rax
	pushq %rax
	movl -44(%rbp), %eax
	movl $1, %edx
	subl %edx, %eax
	popq %rbx
	movl %eax, (%rbx)
	jmp .L188_for_start
.L188_for_end:
	addq $64, %rsp
.loc 6 667 9
	call peek_next_token
	movq %rax, %rax
	movl 8(%rax), %eax
	movl $23, %edx
	cmpl %edx, %eax
	sete %al
	movb %al, %al
	cmpb $0, %al
	jz .L189_end
	subq $48, %rsp
.loc 6 668 13
	subq $12, %rsp
	movl $23, %eax
	subq $4, %rsp
	movl %eax, (%rsp)
	call expect_token
	movq %rax, %rax
	addq $4, %rsp
	addq $12, %rsp
.loc 6 669 13
	movq -24(%rbp), %rax
	leaq 8(%rax), %rax
	pushq %rax
	subq $8, %rsp
	call get_block
	movq %rax, %rax
	addq $8, %rsp
	popq %rbx
	movq %rax, (%rbx)
.loc 6 670 13
	subq $12, %rsp
	movl $24, %eax
	subq $4, %rsp
	movl %eax, (%rsp)
	call expect_token
	movq %rax, %rax
	addq $4, %rsp
	addq $12, %rsp
	jmp .L189_end
	addq $48, %rsp
.L189_end:
.loc 6 673 9
	movq -8(%rbp), %rax
	leaq (%rax), %rax
	pushq %rax
	movq -24(%rbp), %rax
	popq %rbx
	movq %rax, (%rbx)
	jmp .L169_end
	addq $48, %rsp
.L169_elseif_2:
	movq -16(%rbp), %rax
	movl 8(%rax), %eax
	movl $49, %edx
	cmpl %edx, %eax
	sete %al
	movb %al, %al
	cmpb $0, %al
	jz .L169_elseif_3
	subq $32, %rsp
.loc 6 677 9
	movq -8(%rbp), %rax
	leaq 8(%rax), %rax
	pushq %rax
	movl $26, %eax
	popq %rbx
	movl %eax, (%rbx)
.loc 6 678 9
	movq $8, %rdi
	call malloc
	movq %rax, %rdi
	movq $0, %rsi
	movq $8, %rdx
	call memset
	movq %rax, %rax
	movq %rax, -24(%rbp)
.loc 6 679 9
	call peek_next_token
	movq %rax, %rax
	movl 8(%rax), %eax
	movl $15, %edx
	cmpl %edx, %eax
	sete %al
	movb %al, %al
	cmpb $0, %al
	jz .L190_else
	subq $32, %rsp
.loc 6 680 13
	movq -24(%rbp), %rax
	leaq (%rax), %rax
	pushq %rax
	movl $0, %eax
	movslq %eax, %rax
	popq %rbx
	movq %rax, (%rbx)
	jmp .L190_end
	addq $32, %rsp
.L190_else:
	subq $32, %rsp
.loc 6 683 13
	movq -24(%rbp), %rax
	leaq (%rax), %rax
	pushq %rax
	subq $4, %rsp
	movl $1, %eax
	subq $4, %rsp
	movl %eax, (%rsp)
	call get_expression
	movq %rax, %rax
	addq $4, %rsp
	addq $4, %rsp
	popq %rbx
	movq %rax, (%rbx)
	jmp .L190_end
	addq $32, %rsp
.L190_end:
.loc 6 685 9
	movq -8(%rbp), %rax
	leaq (%rax), %rax
	pushq %rax
	movq -24(%rbp), %rax
	popq %rbx
	movq %rax, (%rbx)
.loc 6 687 9
	subq $12, %rsp
	movl $15, %eax
	subq $4, %rsp
	movl %eax, (%rsp)
	call expect_token
	movq %rax, %rax
	addq $4, %rsp
	addq $12, %rsp
	jmp .L169_end
	addq $32, %rsp
.L169_elseif_3:
	movq -16(%rbp), %rax
	movl 8(%rax), %eax
	movl $50, %edx
	cmpl %edx, %eax
	sete %al
	movb %al, %al
	cmpb $0, %al
	jz .L169_elseif_4
	subq $16, %rsp
.loc 6 690 9
	movq -8(%rbp), %rax
	leaq 8(%rax), %rax
	pushq %rax
	movl $27, %eax
	popq %rbx
	movl %eax, (%rbx)
.loc 6 691 9
	movq -8(%rbp), %rax
	leaq (%rax), %rax
	pushq %rax
	movl $0, %eax
	movslq %eax, %rax
	popq %rbx
	movq %rax, (%rbx)
.loc 6 692 9
	subq $12, %rsp
	movl $15, %eax
	subq $4, %rsp
	movl %eax, (%rsp)
	call expect_token
	movq %rax, %rax
	addq $4, %rsp
	addq $12, %rsp
	jmp .L169_end
	addq $16, %rsp
.L169_elseif_4:
	movq -16(%rbp), %rax
	movl 8(%rax), %eax
	movl $51, %edx
	cmpl %edx, %eax
	sete %al
	movb %al, %al
	cmpb $0, %al
	jz .L169_elseif_5
	subq $16, %rsp
.loc 6 695 9
	movq -8(%rbp), %rax
	leaq 8(%rax), %rax
	pushq %rax
	movl $28, %eax
	popq %rbx
	movl %eax, (%rbx)
.loc 6 696 9
	movq -8(%rbp), %rax
	leaq (%rax), %rax
	pushq %rax
	movl $0, %eax
	movslq %eax, %rax
	popq %rbx
	movq %rax, (%rbx)
.loc 6 697 9
	subq $12, %rsp
	movl $15, %eax
	subq $4, %rsp
	movl %eax, (%rsp)
	call expect_token
	movq %rax, %rax
	addq $4, %rsp
	addq $12, %rsp
	jmp .L169_end
	addq $16, %rsp
.L169_elseif_5:
	movq -16(%rbp), %rax
	movl 8(%rax), %eax
	movl $52, %edx
	cmpl %edx, %eax
	sete %al
	movb %al, %al
	cmpb $0, %al
	jz .L169_elseif_6
	subq $32, %rsp
.loc 6 700 9
	movq -8(%rbp), %rax
	leaq 8(%rax), %rax
	pushq %rax
	movl $29, %eax
	popq %rbx
	movl %eax, (%rbx)
.loc 6 701 9
	movq $8, %rdi
	call malloc
	movq %rax, %rdi
	movq $0, %rsi
	movq $8, %rdx
	call memset
	movq %rax, %rax
	movq %rax, -24(%rbp)
.loc 6 702 9
	subq $8, %rsp
	movq .struct_registry(%rip), %rax
	pushq %rax
	call add_struct
	movq %rax, %rax
	addq $8, %rsp
	addq $8, %rsp
	movq %rax, -32(%rbp)
.loc 6 704 9
	leaq -16(%rbp), %rax
	pushq %rax
	subq $8, %rsp
	call get_next_token
	movq %rax, %rax
	addq $8, %rsp
	popq %rbx
	movq %rax, (%rbx)
.loc 6 705 9
	movq -24(%rbp), %rax
	leaq (%rax), %rax
	pushq %rax
	movq -16(%rbp), %rax
	movq (%rax), %rax
	popq %rbx
	movq %rax, (%rbx)
.loc 6 706 9
	movq -32(%rbp), %rax
	leaq (%rax), %rax
	pushq %rax
	movq -16(%rbp), %rax
	movq (%rax), %rax
	popq %rbx
	movq %rax, (%rbx)
.loc 6 708 9
	subq $12, %rsp
	movl $23, %eax
	subq $4, %rsp
	movl %eax, (%rsp)
	call expect_token
	movq %rax, %rax
	addq $4, %rsp
	addq $12, %rsp
.loc 6 709 9
	subq $48, %rsp
.L191_while_start:
	call peek_next_token
	movq %rax, %rax
	movl 8(%rax), %eax
	movl $24, %edx
	cmpl %edx, %eax
	setne %al
	movb %al, %al
	cmpb $0, %al
	jz .L191_while_end
.loc 6 710 13
	movq $16, %rdi
	call malloc
	movq %rax, %rdi
	movq $0, %rsi
	movq $16, %rdx
	call memset
	movq %rax, %rax
	movq %rax, -40(%rbp)
.loc 6 711 13
	leaq -16(%rbp), %rax
	pushq %rax
	subq $4, %rsp
	movl $0, %eax
	subq $4, %rsp
	movl %eax, (%rsp)
	call expect_token
	movq %rax, %rax
	addq $4, %rsp
	addq $4, %rsp
	popq %rbx
	movq %rax, (%rbx)
.loc 6 712 13
	movq -40(%rbp), %rax
	leaq (%rax), %rax
	pushq %rax
	movq -16(%rbp), %rax
	movq (%rax), %rax
	popq %rbx
	movq %rax, (%rbx)
.loc 6 713 13
	subq $12, %rsp
	movl $16, %eax
	subq $4, %rsp
	movl %eax, (%rsp)
	call expect_token
	movq %rax, %rax
	addq $4, %rsp
	addq $12, %rsp
.loc 6 714 13
	call parse_type
	movl %eax, %eax
	movl %eax, -44(%rbp)
.loc 6 715 13
	subq $12, %rsp
	movq -32(%rbp), %rax
	pushq %rax
	movq -40(%rbp), %rax
	movq (%rax), %rax
	pushq %rax
	movl -44(%rbp), %eax
	subq $4, %rsp
	movl %eax, (%rsp)
	call add_member
	addq $8, %rsp
	addq $8, %rsp
	addq $4, %rsp
	addq $12, %rsp
.loc 6 716 13
	call peek_next_token
	movq %rax, %rax
	movl 8(%rax), %eax
	movl $24, %edx
	cmpl %edx, %eax
	setne %al
	movb %al, %al
	cmpb $0, %al
	jz .L192_end
	subq $48, %rsp
.loc 6 717 17
	subq $12, %rsp
	movl $12, %eax
	subq $4, %rsp
	movl %eax, (%rsp)
	call expect_token
	movq %rax, %rax
	addq $4, %rsp
	addq $12, %rsp
	jmp .L192_end
	addq $48, %rsp
.L192_end:
	jmp .L191_while_start
.L191_while_end:
	addq $48, %rsp
.loc 6 720 9
	subq $12, %rsp
	movl $24, %eax
	subq $4, %rsp
	movl %eax, (%rsp)
	call expect_token
	movq %rax, %rax
	addq $4, %rsp
	addq $12, %rsp
.loc 6 722 9
	movq -8(%rbp), %rax
	leaq (%rax), %rax
	pushq %rax
	movq -24(%rbp), %rax
	popq %rbx
	movq %rax, (%rbx)
	jmp .L169_end
	addq $32, %rsp
.L169_elseif_6:
	movq -16(%rbp), %rax
	movl 8(%rax), %eax
	movl $53, %edx
	cmpl %edx, %eax
	sete %al
	movb %al, %al
	cmpb $0, %al
	jz .L169_elseif_7
	subq $32, %rsp
.loc 6 725 9
	movq -8(%rbp), %rax
	leaq 8(%rax), %rax
	pushq %rax
	movl $23, %eax
	popq %rbx
	movl %eax, (%rbx)
.loc 6 726 9
	movq $16, %rdi
	call malloc
	movq %rax, %rdi
	movq $0, %rsi
	movq $16, %rdx
	call memset
	movq %rax, %rax
	movq %rax, -24(%rbp)
.loc 6 727 9
	subq $12, %rsp
	movl $21, %eax
	subq $4, %rsp
	movl %eax, (%rsp)
	call expect_token
	movq %rax, %rax
	addq $4, %rsp
	addq $12, %rsp
.loc 6 728 9
	movq -24(%rbp), %rax
	leaq (%rax), %rax
	pushq %rax
	subq $4, %rsp
	movl $1, %eax
	subq $4, %rsp
	movl %eax, (%rsp)
	call get_expression
	movq %rax, %rax
	addq $4, %rsp
	addq $4, %rsp
	popq %rbx
	movq %rax, (%rbx)
.loc 6 729 9
	subq $12, %rsp
	movl $22, %eax
	subq $4, %rsp
	movl %eax, (%rsp)
	call expect_token
	movq %rax, %rax
	addq $4, %rsp
	addq $12, %rsp
.loc 6 730 9
	subq $12, %rsp
	movl $23, %eax
	subq $4, %rsp
	movl %eax, (%rsp)
	call expect_token
	movq %rax, %rax
	addq $4, %rsp
	addq $12, %rsp
.loc 6 731 9
	movq -24(%rbp), %rax
	leaq 8(%rax), %rax
	pushq %rax
	subq $8, %rsp
	call get_block
	movq %rax, %rax
	addq $8, %rsp
	popq %rbx
	movq %rax, (%rbx)
.loc 6 732 9
	subq $12, %rsp
	movl $24, %eax
	subq $4, %rsp
	movl %eax, (%rsp)
	call expect_token
	movq %rax, %rax
	addq $4, %rsp
	addq $12, %rsp
.loc 6 733 9
	movq -8(%rbp), %rax
	leaq (%rax), %rax
	pushq %rax
	movq -24(%rbp), %rax
	popq %rbx
	movq %rax, (%rbx)
	jmp .L169_end
	addq $32, %rsp
.L169_elseif_7:
	movq -16(%rbp), %rax
	movl 8(%rax), %eax
	movl $54, %edx
	cmpl %edx, %eax
	sete %al
	movb %al, %al
	cmpb $0, %al
	jz .L169_elseif_8
	subq $32, %rsp
.loc 6 736 9
	movq -8(%rbp), %rax
	leaq 8(%rax), %rax
	pushq %rax
	movl $24, %eax
	popq %rbx
	movl %eax, (%rbx)
.loc 6 737 9
	movq $32, %rdi
	call malloc
	movq %rax, %rdi
	movq $0, %rsi
	movq $32, %rdx
	call memset
	movq %rax, %rax
	movq %rax, -24(%rbp)
.loc 6 738 9
	subq $12, %rsp
	movl $21, %eax
	subq $4, %rsp
	movl %eax, (%rsp)
	call expect_token
	movq %rax, %rax
	addq $4, %rsp
	addq $12, %rsp
.loc 6 739 9
	movq -24(%rbp), %rax
	leaq (%rax), %rax
	pushq %rax
	subq $8, %rsp
	call get_statement
	movq %rax, %rax
	addq $8, %rsp
	popq %rbx
	movq %rax, (%rbx)
.loc 6 740 9
	movq -24(%rbp), %rax
	leaq 8(%rax), %rax
	pushq %rax
	subq $4, %rsp
	movl $1, %eax
	subq $4, %rsp
	movl %eax, (%rsp)
	call get_expression
	movq %rax, %rax
	addq $4, %rsp
	addq $4, %rsp
	popq %rbx
	movq %rax, (%rbx)
.loc 6 741 9
	subq $12, %rsp
	movl $15, %eax
	subq $4, %rsp
	movl %eax, (%rsp)
	call expect_token
	movq %rax, %rax
	addq $4, %rsp
	addq $12, %rsp
.loc 6 742 9
	movq -24(%rbp), %rax
	leaq 16(%rax), %rax
	pushq %rax
	subq $8, %rsp
	call get_statement
	movq %rax, %rax
	addq $8, %rsp
	popq %rbx
	movq %rax, (%rbx)
.loc 6 743 9
	subq $12, %rsp
	movl $22, %eax
	subq $4, %rsp
	movl %eax, (%rsp)
	call expect_token
	movq %rax, %rax
	addq $4, %rsp
	addq $12, %rsp
.loc 6 744 9
	subq $12, %rsp
	movl $23, %eax
	subq $4, %rsp
	movl %eax, (%rsp)
	call expect_token
	movq %rax, %rax
	addq $4, %rsp
	addq $12, %rsp
.loc 6 745 9
	movq -24(%rbp), %rax
	leaq 24(%rax), %rax
	pushq %rax
	subq $8, %rsp
	call get_block
	movq %rax, %rax
	addq $8, %rsp
	popq %rbx
	movq %rax, (%rbx)
.loc 6 746 9
	subq $12, %rsp
	movl $24, %eax
	subq $4, %rsp
	movl %eax, (%rsp)
	call expect_token
	movq %rax, %rax
	addq $4, %rsp
	addq $12, %rsp
.loc 6 747 9
	movq -8(%rbp), %rax
	leaq (%rax), %rax
	pushq %rax
	movq -24(%rbp), %rax
	popq %rbx
	movq %rax, (%rbx)
	jmp .L169_end
	addq $32, %rsp
.L169_elseif_8:
	movq -16(%rbp), %rax
	movl 8(%rax), %eax
	movl $55, %edx
	cmpl %edx, %eax
	sete %al
	movb %al, %al
	cmpb $0, %al
	jz .L169_elseif_9
	subq $32, %rsp
.loc 6 750 9
	movq -8(%rbp), %rax
	leaq 8(%rax), %rax
	pushq %rax
	movl $30, %eax
	popq %rbx
	movl %eax, (%rbx)
.loc 6 751 9
	movq $8, %rdi
	call malloc
	movq %rax, %rdi
	movq $0, %rsi
	movq $8, %rdx
	call memset
	movq %rax, %rax
	movq %rax, -24(%rbp)
.loc 6 752 9
	leaq -16(%rbp), %rax
	pushq %rax
	subq $4, %rsp
	movl $3, %eax
	subq $4, %rsp
	movl %eax, (%rsp)
	call expect_token
	movq %rax, %rax
	addq $4, %rsp
	addq $4, %rsp
	popq %rbx
	movq %rax, (%rbx)
.loc 6 753 9
	movq -24(%rbp), %rax
	leaq (%rax), %rax
	pushq %rax
	movq -16(%rbp), %rax
	movq (%rax), %rax
	popq %rbx
	movq %rax, (%rbx)
.loc 6 754 9
	movq -8(%rbp), %rax
	leaq (%rax), %rax
	pushq %rax
	movq -24(%rbp), %rax
	popq %rbx
	movq %rax, (%rbx)
	jmp .L169_end
	addq $32, %rsp
.L169_elseif_9:
	movq -16(%rbp), %rax
	movl 8(%rax), %eax
	movl $63, %edx
	cmpl %edx, %eax
	sete %al
	movb %al, %al
	cmpb $0, %al
	jz .L169_else
	subq $32, %rsp
.loc 6 757 9
	movq -8(%rbp), %rax
	leaq 8(%rax), %rax
	pushq %rax
	movl $31, %eax
	popq %rbx
	movl %eax, (%rbx)
.loc 6 758 9
	movq $9, %rdi
	call malloc
	movq %rax, %rdi
	movq $0, %rsi
	movq $9, %rdx
	call memset
	movq %rax, %rax
	movq %rax, -24(%rbp)
.loc 6 759 9
	movq -24(%rbp), %rax
	leaq (%rax), %rax
	pushq %rax
	movb $0, %al
	popq %rbx
	movb %al, (%rbx)
.loc 6 760 9
	call peek_next_token
	movq %rax, %rax
	movl 8(%rax), %eax
	movl $25, %edx
	cmpl %edx, %eax
	sete %al
	movb %al, %al
	cmpb $0, %al
	jz .L193_end
	subq $32, %rsp
.loc 6 761 13
	call consume_next_token
.loc 6 762 13
	movq -24(%rbp), %rax
	leaq (%rax), %rax
	pushq %rax
	movb $1, %al
	popq %rbx
	movb %al, (%rbx)
.loc 6 763 13
	subq $12, %rsp
	movl $26, %eax
	subq $4, %rsp
	movl %eax, (%rsp)
	call expect_token
	movq %rax, %rax
	addq $4, %rsp
	addq $12, %rsp
	jmp .L193_end
	addq $32, %rsp
.L193_end:
.loc 6 765 9
	movq -24(%rbp), %rax
	leaq 1(%rax), %rax
	pushq %rax
	subq $4, %rsp
	movl $1, %eax
	subq $4, %rsp
	movl %eax, (%rsp)
	call get_expression
	movq %rax, %rax
	addq $4, %rsp
	addq $4, %rsp
	popq %rbx
	movq %rax, (%rbx)
.loc 6 766 9
	subq $12, %rsp
	movl $15, %eax
	subq $4, %rsp
	movl %eax, (%rsp)
	call expect_token
	movq %rax, %rax
	addq $4, %rsp
	addq $12, %rsp
.loc 6 767 9
	movq -8(%rbp), %rax
	leaq (%rax), %rax
	pushq %rax
	movq -24(%rbp), %rax
	popq %rbx
	movq %rax, (%rbx)
	jmp .L169_end
	addq $32, %rsp
.L169_else:
	subq $32, %rsp
.loc 6 770 9
	call unconsume_token
.loc 6 771 9
	subq $12, %rsp
	movl $1, %eax
	subq $4, %rsp
	movl %eax, (%rsp)
	call get_expression
	movq %rax, %rax
	addq $4, %rsp
	addq $12, %rsp
	movq %rax, -24(%rbp)
.loc 6 772 9
	call peek_next_token
	movq %rax, %rax
	movl 8(%rax), %eax
	movl $5, %edx
	cmpl %edx, %eax
	sete %al
	movb %al, %al
	cmpb $0, %al
	jz .L194_else
	subq $32, %rsp
.loc 6 773 13
	call consume_next_token
.loc 6 774 13
	movq -8(%rbp), %rax
	leaq 8(%rax), %rax
	pushq %rax
	movl $25, %eax
	popq %rbx
	movl %eax, (%rbx)
.loc 6 776 13
	movq $29, %rdi
	call malloc
	movq %rax, %rdi
	movq $0, %rsi
	movq $29, %rdx
	call memset
	movq %rax, %rax
	movq %rax, -32(%rbp)
.loc 6 778 13
	movq -32(%rbp), %rax
	leaq (%rax), %rax
	pushq %rax
	movl $0, %eax
	movslq %eax, %rax
	popq %rbx
	movq %rax, (%rbx)
.loc 6 779 13
	movq -32(%rbp), %rax
	leaq 24(%rax), %rax
	pushq %rax
	movl $0, %eax
	popq %rbx
	movl %eax, (%rbx)
.loc 6 780 13
	movq -32(%rbp), %rax
	leaq 8(%rax), %rax
	pushq %rax
	movq -24(%rbp), %rax
	popq %rbx
	movq %rax, (%rbx)
.loc 6 781 13
	movq -32(%rbp), %rax
	leaq 16(%rax), %rax
	pushq %rax
	subq $4, %rsp
	movl $1, %eax
	subq $4, %rsp
	movl %eax, (%rsp)
	call get_expression
	movq %rax, %rax
	addq $4, %rsp
	addq $4, %rsp
	popq %rbx
	movq %rax, (%rbx)
.loc 6 782 13
	movq -8(%rbp), %rax
	leaq (%rax), %rax
	pushq %rax
	movq -32(%rbp), %rax
	popq %rbx
	movq %rax, (%rbx)
.loc 6 784 13
	call peek_next_token
	movq %rax, %rax
	movl 8(%rax), %eax
	movl $15, %edx
	cmpl %edx, %eax
	sete %al
	movb %al, %al
	cmpb $0, %al
	jz .L195_end
	subq $32, %rsp
.loc 6 785 17
	call consume_next_token
	jmp .L195_end
	addq $32, %rsp
.L195_end:
	jmp .L194_end
	addq $32, %rsp
.L194_else:
	subq $32, %rsp
.loc 6 789 13
	movq -24(%rbp), %rax
	movl 8(%rax), %eax
	movl $4, %edx
	cmpl %edx, %eax
	sete %al
	movb %al, %al
	cmpb $0, %al
	jz .L196_else
	subq $32, %rsp
.loc 6 790 17
	subq $12, %rsp
	movl $15, %eax
	subq $4, %rsp
	movl %eax, (%rsp)
	call expect_token
	movq %rax, %rax
	addq $4, %rsp
	addq $12, %rsp
.loc 6 791 17
	movq -24(%rbp), %rax
	addq $32, %rsp
	leave
.cfi_def_cfa 7, 8
	ret
	jmp .L196_end
	addq $32, %rsp
.L196_else:
	subq $32, %rsp
.loc 6 794 17
	subq $12, %rsp
	movq -24(%rbp), %rax
	movl 12(%rax), %eax
	subq $4, %rsp
	movl %eax, (%rsp)
	call print_location_of_error
	addq $4, %rsp
	addq $12, %rsp
.loc 6 795 17
	subq $8, %rsp
	leaq .str_253(%rip), %rax
	pushq %rax
	subq $12, %rsp
	movq -24(%rbp), %rax
	movl 8(%rax), %eax
	subq $4, %rsp
	movl %eax, (%rsp)
	call debug_ast_node_type_name
	movq %rax, %rdx
	addq $4, %rsp
	addq $12, %rsp
	popq %rax
	pushq %rdx
	pushq %rax
	movq $64, %rdi
	call malloc
	movq %rax, %r15
	movq $0, %r14
	movq $64, %r13
	popq %r12
	call __append_string_to_builder
	popq %r12
	subq $8, %rsp
	call __append_string_to_builder
	addq $8, %rsp
	movq %r15, %rax
	movq %rax, %rax
	leaq .str_254(%rip), %rdx
	movq %rdx, %r12
	subq $8, %rsp
	call __append_string_to_builder
	addq $8, %rsp
	movq %r15, %rax
	movq %rax, %rax
	pushq %rax
	subq $12, %rsp
	movq -24(%rbp), %rax
	movl 8(%rax), %eax
	subq $4, %rsp
	movl %eax, (%rsp)
	call int_to_str
	movq %rax, %rdx
	addq $4, %rsp
	addq $12, %rsp
	popq %rax
	pushq %rdx
	pushq %rax
	movq $64, %rdi
	call malloc
	movq %rax, %r15
	movq $0, %r14
	movq $64, %r13
	popq %r12
	call __append_string_to_builder
	popq %r12
	subq $8, %rsp
	call __append_string_to_builder
	addq $8, %rsp
	movq %r15, %rax
	movq %rax, %rax
	leaq .str_255(%rip), %rdx
	movq %rdx, %r12
	subq $8, %rsp
	call __append_string_to_builder
	addq $8, %rsp
	movq %r15, %rax
	movq %rax, %rax
	pushq %rax
	call error
	addq $8, %rsp
	addq $8, %rsp
	jmp .L196_end
	addq $32, %rsp
.L196_end:
	jmp .L194_end
	addq $32, %rsp
.L194_end:
	jmp .L169_end
	addq $32, %rsp
.L169_end:
	movq -8(%rbp), %rax
	addq $16, %rsp
	leave
.cfi_def_cfa 7, 8
	ret
	addq $16, %rsp
	leave
.cfi_def_cfa 7, 8
	ret
.cfi_endproc
.loc 6 803 1
.globl get_block
get_block:
.cfi_startproc
	pushq %rbp
.cfi_def_cfa_offset 16
.cfi_offset 6, -16
	movq %rsp, %rbp
.cfi_def_cfa_register 6
	subq $16, %rsp
.loc 6 804 5
	movq $8, %rdi
	call malloc
	movq %rax, %rdi
	movq $0, %rsi
	movq $8, %rdx
	call memset
	movq %rax, %rax
	movq %rax, -8(%rbp)
.loc 6 805 5
	movq -8(%rbp), %rax
	leaq (%rax), %rax
	pushq %rax
	subq $8, %rsp
	movq $16, %rdi
	call malloc
	movq %rax, %rbx
	movl $0, 8(%rbx)
	movl $4, 12(%rbx)
	movq $32, %rdi
	call malloc
	movq %rax, %rdi
	movq $0, %rsi
	movq $32, %rdx
	call memset
	movq %rax, (%rbx)
	movq %rbx, %rax
	addq $8, %rsp
	popq %rbx
	movq %rax, (%rbx)
.loc 6 806 5
	subq $16, %rsp
.L203_while_start:
	call peek_next_token
	movq %rax, %rax
	movl 8(%rax), %eax
	movl $24, %edx
	cmpl %edx, %eax
	setne %al
	movb %al, %al
	cmpb $0, %al
	jz .L203_while_end
.loc 6 807 9
	call get_statement
	movq %rax, %rax
	movq %rax, -16(%rbp)
.loc 6 808 9
	movq -8(%rbp), %rax
	pushq %rax
	movq -16(%rbp), %rax
	pushq %rax
	call add_statement
	addq $8, %rsp
	addq $8, %rsp
	jmp .L203_while_start
.L203_while_end:
	addq $16, %rsp
	movq -8(%rbp), %rax
	addq $16, %rsp
	leave
.cfi_def_cfa 7, 8
	ret
	addq $16, %rsp
	leave
.cfi_def_cfa 7, 8
	ret
.cfi_endproc
.loc 6 813 1
.loc 6 815 1
.globl delete_ast_block
delete_ast_block:
.cfi_startproc
	pushq %rbp
.cfi_def_cfa_offset 16
.cfi_offset 6, -16
	movq %rsp, %rbp
.cfi_def_cfa_register 6
.loc 6 816 5
	subq $16, %rsp
.loc 6 816 10
	movl $0, %eax
	movl %eax, -4(%rbp)
.L204_for_start:
	movl -4(%rbp), %eax
	pushq %rax
	movq 16(%rbp), %rax
	movq (%rax), %rax
	movl 8(%rax), %edx
	popq %rax
	cmpl %edx, %eax
	setl %al
	movb %al, %al
	cmpb $0, %al
	jz .L204_for_end
.loc 6 817 9
	subq $8, %rsp
	movq 16(%rbp), %rax
	movq (%rax), %rax
	movq (%rax), %rax
	pushq %rax
	movl -4(%rbp), %edx
	popq %rax
	leaq (%rax, %rdx, 8), %rax
	movq (%rax), %rax
	pushq %rax
	call delete_ast_node
	addq $8, %rsp
	addq $8, %rsp
.L204_for_inc:
.loc 6 816 50
	leaq -4(%rbp), %rax
	pushq %rax
	movl -4(%rbp), %eax
	movl $1, %edx
	addl %edx, %eax
	popq %rbx
	movl %eax, (%rbx)
	jmp .L204_for_start
.L204_for_end:
	addq $16, %rsp
.loc 6 819 5
	movq 16(%rbp), %rax
	movq (%rax), %rax
	movq %rax, %rbx
	movq (%rax), %rdi
	call free
	movq %rbx, %rdi
	call free
.loc 6 820 5
	movq 16(%rbp), %rax
	movq %rax, %rdi
	call free
	leave
.cfi_def_cfa 7, 8
	ret
.cfi_endproc
.loc 6 823 1
.globl delete_ast_node
delete_ast_node:
.cfi_startproc
	pushq %rbp
.cfi_def_cfa_offset 16
.cfi_offset 6, -16
	movq %rsp, %rbp
.cfi_def_cfa_register 6
	leave
.cfi_def_cfa 7, 8
	ret
.cfi_endproc
.loc 1 6 1
.file 7 "src/codegen"
.loc 7 1 0
.loc 7 6 1
.loc 7 8 1
.loc 7 12 1
.globl new_text_buffer
new_text_buffer:
.cfi_startproc
	pushq %rbp
.cfi_def_cfa_offset 16
.cfi_offset 6, -16
	movq %rsp, %rbp
.cfi_def_cfa_register 6
	subq $16, %rsp
.loc 7 13 5
	movq $8, %rdi
	call malloc
	movq %rax, %rdi
	movq $0, %rsi
	movq $8, %rdx
	call memset
	movq %rax, %rax
	movq %rax, -8(%rbp)
.loc 7 14 5
	movq -8(%rbp), %rax
	leaq (%rax), %rax
	pushq %rax
	subq $8, %rsp
	movq $16, %rdi
	call malloc
	movq %rax, %rbx
	movl $0, 8(%rbx)
	movl $4, 12(%rbx)
	movq $4, %rdi
	call malloc
	movq %rax, %rdi
	movq $0, %rsi
	movq $4, %rdx
	call memset
	movq %rax, (%rbx)
	movq %rbx, %rax
	addq $8, %rsp
	popq %rbx
	movq %rax, (%rbx)
	movq -8(%rbp), %rax
	addq $16, %rsp
	leave
.cfi_def_cfa 7, 8
	ret
	addq $16, %rsp
	leave
.cfi_def_cfa 7, 8
	ret
.cfi_endproc
.loc 7 18 1
.globl delete_text_buffer
delete_text_buffer:
.cfi_startproc
	pushq %rbp
.cfi_def_cfa_offset 16
.cfi_offset 6, -16
	movq %rsp, %rbp
.cfi_def_cfa_register 6
.loc 7 19 5
	movq 16(%rbp), %rax
	cmpq $0, %rax
	jz .L205_end
.loc 7 20 9
	movq 16(%rbp), %rax
	movq (%rax), %rax
	movq %rax, %rbx
	movq (%rax), %rdi
	call free
	movq %rbx, %rdi
	call free
.loc 7 21 9
	movq 16(%rbp), %rax
	movq %rax, %rdi
	call free
	jmp .L205_end
.L205_end:
	leave
.cfi_def_cfa 7, 8
	ret
.cfi_endproc
.loc 7 25 1
.globl add_to_text_buffer
add_to_text_buffer:
.cfi_startproc
	pushq %rbp
.cfi_def_cfa_offset 16
.cfi_offset 6, -16
	movq %rsp, %rbp
.cfi_def_cfa_register 6
.loc 7 26 5
	movq 24(%rbp), %rax
	cmpq $0, %rax
	jz .L206_else
	subq $16, %rsp
.loc 7 27 9
	movq 16(%rbp), %rax
	movq %rax, %rdi
	call strlen
	movl %eax, %eax
	movl %eax, -4(%rbp)
.loc 7 28 9
	subq $16, %rsp
.loc 7 28 14
	movl $0, %eax
	movl %eax, -8(%rbp)
.L207_for_start:
	movl -8(%rbp), %eax
	movl -4(%rbp), %edx
	cmpl %edx, %eax
	setl %al
	movb %al, %al
	cmpb $0, %al
	jz .L207_for_end
.loc 7 29 13
	movq 24(%rbp), %rax
	movq (%rax), %rax
	pushq %rax
	movq 16(%rbp), %rax
	pushq %rax
	movl -8(%rbp), %edx
	popq %rax
	leaq (%rax, %rdx, 1), %rax
	movb (%rax), %bl
	popq %rax
	call __append_char
	movb (%rax), %al
	addl $1, 8(%r12)
.L207_for_inc:
.loc 7 28 42
	leaq -8(%rbp), %rax
	pushq %rax
	movl -8(%rbp), %eax
	movl $1, %edx
	addl %edx, %eax
	popq %rbx
	movl %eax, (%rbx)
	jmp .L207_for_start
.L207_for_end:
	addq $16, %rsp
	jmp .L206_end
	addq $16, %rsp
.L206_else:
.loc 7 33 9
	subq $8, %rsp
	movq 16(%rbp), %rax
	pushq %rax
	call print
	addq $8, %rsp
	addq $8, %rsp
	jmp .L206_end
.L206_end:
	leave
.cfi_def_cfa 7, 8
	ret
.cfi_endproc
.loc 7 37 1
.globl terminate_buffer
terminate_buffer:
.cfi_startproc
	pushq %rbp
.cfi_def_cfa_offset 16
.cfi_offset 6, -16
	movq %rsp, %rbp
.cfi_def_cfa_register 6
.loc 7 38 5
	movq 16(%rbp), %rax
	movq (%rax), %rax
	pushq %rax
	movb .char_256(%rip), %bl
	popq %rax
	call __append_char
	movb (%rax), %al
	addl $1, 8(%r12)
	leave
.cfi_def_cfa 7, 8
	ret
.cfi_endproc
.loc 7 41 1
.globl print_loc
print_loc:
.cfi_startproc
	pushq %rbp
.cfi_def_cfa_offset 16
.cfi_offset 6, -16
	movq %rsp, %rbp
.cfi_def_cfa_register 6
	subq $32, %rsp
.loc 7 42 5
	movl $0, %eax
	movl %eax, -4(%rbp)
.loc 7 43 5
	movq .line_positions(%rip), %rax
	movl 8(%rax), %eax
	movl $1, %edx
	subl %edx, %eax
	movl %eax, -8(%rbp)
.loc 7 44 5
	movl $1, %eax
	negl %eax
	movl %eax, -12(%rbp)
.loc 7 45 5
	subq $16, %rsp
.L210_while_start:
	movl -4(%rbp), %eax
	movl -8(%rbp), %edx
	cmpl %edx, %eax
	setle %al
	movb %al, %al
	cmpb $0, %al
	jz .L210_while_end
.loc 7 46 9
	movl -4(%rbp), %eax
	movl -8(%rbp), %edx
	addl %edx, %eax
	movl %eax, %eax
	movl $2, %edx
	movl %edx, %ebx
	cdq
	idivl %ebx
	movl %eax, -16(%rbp)
.loc 7 47 9
	movl 16(%rbp), %eax
	pushq %rax
	movq .line_positions(%rip), %rax
	movq (%rax), %rax
	pushq %rax
	movl -16(%rbp), %edx
	popq %rax
	leaq (%rax, %rdx, 4), %rax
	movl (%rax), %edx
	popq %rax
	cmpl %edx, %eax
	setl %al
	movb %al, %al
	cmpb $0, %al
	jz .L211_else
	subq $16, %rsp
.loc 7 48 13
	leaq -8(%rbp), %rax
	pushq %rax
	movl -16(%rbp), %eax
	movl $1, %edx
	subl %edx, %eax
	popq %rbx
	movl %eax, (%rbx)
	jmp .L211_end
	addq $16, %rsp
.L211_else:
	subq $16, %rsp
.loc 7 51 13
	leaq -4(%rbp), %rax
	pushq %rax
	movl -16(%rbp), %eax
	movl $1, %edx
	addl %edx, %eax
	popq %rbx
	movl %eax, (%rbx)
.loc 7 52 13
	leaq -12(%rbp), %rax
	pushq %rax
	movl -16(%rbp), %eax
	popq %rbx
	movl %eax, (%rbx)
	jmp .L211_end
	addq $16, %rsp
.L211_end:
	jmp .L210_while_start
.L210_while_end:
	addq $16, %rsp
.loc 7 55 5
	movl -12(%rbp), %eax
	movl $1, %edx
	addl %edx, %eax
	movl %eax, -16(%rbp)
.loc 7 56 5
	movl 16(%rbp), %eax
	pushq %rax
	movq .line_positions(%rip), %rax
	movq (%rax), %rax
	pushq %rax
	movl -12(%rbp), %edx
	popq %rax
	leaq (%rax, %rdx, 4), %rax
	movl (%rax), %edx
	popq %rax
	subl %edx, %eax
	movl %eax, -20(%rbp)
.loc 7 57 5
	movq 20(%rbp), %rax
	pushq %rax
	leaq .str_257(%rip), %rax
	pushq %rax
	subq $12, %rsp
	movl .file_index(%rip), %eax
	subq $4, %rsp
	movl %eax, (%rsp)
	call int_to_str
	movq %rax, %rdx
	addq $4, %rsp
	addq $12, %rsp
	popq %rax
	pushq %rdx
	pushq %rax
	movq $64, %rdi
	call malloc
	movq %rax, %r15
	movq $0, %r14
	movq $64, %r13
	popq %r12
	call __append_string_to_builder
	popq %r12
	subq $8, %rsp
	call __append_string_to_builder
	addq $8, %rsp
	movq %r15, %rax
	movq %rax, %rax
	leaq .str_258(%rip), %rdx
	movq %rdx, %r12
	subq $8, %rsp
	call __append_string_to_builder
	addq $8, %rsp
	movq %r15, %rax
	movq %rax, %rax
	pushq %rax
	subq $12, %rsp
	movl -16(%rbp), %eax
	subq $4, %rsp
	movl %eax, (%rsp)
	call int_to_str
	movq %rax, %rdx
	addq $4, %rsp
	addq $12, %rsp
	popq %rax
	pushq %rdx
	pushq %rax
	movq $64, %rdi
	call malloc
	movq %rax, %r15
	movq $0, %r14
	movq $64, %r13
	popq %r12
	call __append_string_to_builder
	popq %r12
	subq $8, %rsp
	call __append_string_to_builder
	addq $8, %rsp
	movq %r15, %rax
	movq %rax, %rax
	leaq .str_259(%rip), %rdx
	movq %rdx, %r12
	subq $8, %rsp
	call __append_string_to_builder
	addq $8, %rsp
	movq %r15, %rax
	movq %rax, %rax
	pushq %rax
	subq $12, %rsp
	movl -20(%rbp), %eax
	subq $4, %rsp
	movl %eax, (%rsp)
	call int_to_str
	movq %rax, %rdx
	addq $4, %rsp
	addq $12, %rsp
	popq %rax
	pushq %rdx
	pushq %rax
	movq $64, %rdi
	call malloc
	movq %rax, %r15
	movq $0, %r14
	movq $64, %r13
	popq %r12
	call __append_string_to_builder
	popq %r12
	subq $8, %rsp
	call __append_string_to_builder
	addq $8, %rsp
	movq %r15, %rax
	movq %rax, %rax
	leaq .str_260(%rip), %rdx
	movq %rdx, %r12
	subq $8, %rsp
	call __append_string_to_builder
	addq $8, %rsp
	movq %r15, %rax
	movq %rax, %rax
	pushq %rax
	call add_to_text_buffer
	addq $8, %rsp
	addq $8, %rsp
	addq $32, %rsp
	leave
.cfi_def_cfa 7, 8
	ret
.cfi_endproc
.loc 7 61 1
.loc 7 70 1
.loc 7 109 1
.loc 7 128 1
.loc 7 133 1
.loc 7 138 1
.loc 7 145 1
.loc 7 147 1
.globl make_reg
make_reg:
.cfi_startproc
	pushq %rbp
.cfi_def_cfa_offset 16
.cfi_offset 6, -16
	movq %rsp, %rbp
.cfi_def_cfa_register 6
	subq $16, %rsp
.loc 7 148 5
	movq $12, %rdi
	call malloc
	movq %rax, %rdi
	movq $0, %rsi
	movq $12, %rdx
	call memset
	movq %rax, %rax
	movq %rax, -8(%rbp)
.loc 7 149 5
	movq -8(%rbp), %rax
	leaq (%rax), %rax
	pushq %rax
	movq 16(%rbp), %rax
	popq %rbx
	movq %rax, (%rbx)
.loc 7 150 5
	movq -8(%rbp), %rax
	leaq 8(%rax), %rax
	pushq %rax
	movl $0, %eax
	popq %rbx
	movl %eax, (%rbx)
	movq -8(%rbp), %rax
	addq $16, %rsp
	leave
.cfi_def_cfa 7, 8
	ret
	addq $16, %rsp
	leave
.cfi_def_cfa 7, 8
	ret
.cfi_endproc
.loc 7 155 1
.globl make_imm
make_imm:
.cfi_startproc
	pushq %rbp
.cfi_def_cfa_offset 16
.cfi_offset 6, -16
	movq %rsp, %rbp
.cfi_def_cfa_register 6
	subq $16, %rsp
.loc 7 156 5
	movq $12, %rdi
	call malloc
	movq %rax, %rdi
	movq $0, %rsi
	movq $12, %rdx
	call memset
	movq %rax, %rax
	movq %rax, -8(%rbp)
.loc 7 157 5
	movq -8(%rbp), %rax
	leaq (%rax), %rax
	pushq %rax
	movq 16(%rbp), %rax
	popq %rbx
	movq %rax, (%rbx)
.loc 7 158 5
	movq -8(%rbp), %rax
	leaq 8(%rax), %rax
	pushq %rax
	movl $1, %eax
	popq %rbx
	movl %eax, (%rbx)
	movq -8(%rbp), %rax
	addq $16, %rsp
	leave
.cfi_def_cfa 7, 8
	ret
	addq $16, %rsp
	leave
.cfi_def_cfa 7, 8
	ret
.cfi_endproc
.loc 7 162 1
.globl make_label
make_label:
.cfi_startproc
	pushq %rbp
.cfi_def_cfa_offset 16
.cfi_offset 6, -16
	movq %rsp, %rbp
.cfi_def_cfa_register 6
	subq $16, %rsp
.loc 7 163 5
	movq $12, %rdi
	call malloc
	movq %rax, %rdi
	movq $0, %rsi
	movq $12, %rdx
	call memset
	movq %rax, %rax
	movq %rax, -8(%rbp)
.loc 7 164 5
	movq -8(%rbp), %rax
	leaq (%rax), %rax
	pushq %rax
	movq 16(%rbp), %rax
	popq %rbx
	movq %rax, (%rbx)
.loc 7 165 5
	movq -8(%rbp), %rax
	leaq 8(%rax), %rax
	pushq %rax
	movl $2, %eax
	popq %rbx
	movl %eax, (%rbx)
	movq -8(%rbp), %rax
	addq $16, %rsp
	leave
.cfi_def_cfa 7, 8
	ret
	addq $16, %rsp
	leave
.cfi_def_cfa 7, 8
	ret
.cfi_endproc
.loc 7 169 1
.globl make_stdlib_label
make_stdlib_label:
.cfi_startproc
	pushq %rbp
.cfi_def_cfa_offset 16
.cfi_offset 6, -16
	movq %rsp, %rbp
.cfi_def_cfa_register 6
	subq $16, %rsp
.loc 7 170 5
	movq $12, %rdi
	call malloc
	movq %rax, %rdi
	movq $0, %rsi
	movq $12, %rdx
	call memset
	movq %rax, %rax
	movq %rax, -8(%rbp)
.loc 7 171 5
	movq -8(%rbp), %rax
	leaq (%rax), %rax
	pushq %rax
	movq 16(%rbp), %rax
	popq %rbx
	movq %rax, (%rbx)
.loc 7 172 5
	movq -8(%rbp), %rax
	leaq 8(%rax), %rax
	pushq %rax
	movl $3, %eax
	popq %rbx
	movl %eax, (%rbx)
	movq -8(%rbp), %rax
	addq $16, %rsp
	leave
.cfi_def_cfa 7, 8
	ret
	addq $16, %rsp
	leave
.cfi_def_cfa 7, 8
	ret
.cfi_endproc
.loc 7 176 1
.globl make_relative_label
make_relative_label:
.cfi_startproc
	pushq %rbp
.cfi_def_cfa_offset 16
.cfi_offset 6, -16
	movq %rsp, %rbp
.cfi_def_cfa_register 6
	subq $16, %rsp
.loc 7 177 5
	movq $12, %rdi
	call malloc
	movq %rax, %rdi
	movq $0, %rsi
	movq $12, %rdx
	call memset
	movq %rax, %rax
	movq %rax, -8(%rbp)
.loc 7 178 5
	movq -8(%rbp), %rax
	leaq (%rax), %rax
	pushq %rax
	movq 16(%rbp), %rax
	popq %rbx
	movq %rax, (%rbx)
.loc 7 179 5
	movq -8(%rbp), %rax
	leaq 8(%rax), %rax
	pushq %rax
	movl $4, %eax
	popq %rbx
	movl %eax, (%rbx)
	movq -8(%rbp), %rax
	addq $16, %rsp
	leave
.cfi_def_cfa 7, 8
	ret
	addq $16, %rsp
	leave
.cfi_def_cfa 7, 8
	ret
.cfi_endproc
.loc 7 183 1
.globl make_mem
make_mem:
.cfi_startproc
	pushq %rbp
.cfi_def_cfa_offset 16
.cfi_offset 6, -16
	movq %rsp, %rbp
.cfi_def_cfa_register 6
	subq $16, %rsp
.loc 7 185 5
	movq $12, %rdi
	call malloc
	movq %rax, %rdi
	movq $0, %rsi
	movq $12, %rdx
	call memset
	movq %rax, %rax
	movq %rax, -8(%rbp)
.loc 7 186 5
	movq -8(%rbp), %rax
	leaq (%rax), %rax
	pushq %rax
	movl 20(%rbp), %eax
	pushq %rax
	movl $1, %eax
	movslq %eax, %rax
	movl $32, %edx
	movslq %edx, %rdx
	movb %dl, %cl
	salq %cl, %rax
	movq %rax, %rax
	movl $1, %edx
	movslq %edx, %rdx
	subq %rdx, %rax
	movq %rax, %rdx
	popq %rax
	movslq %eax, %rax
	andq %rdx, %rax
	popq %rbx
	movq %rax, (%rbx)
.loc 7 187 5
	movq -8(%rbp), %rax
	leaq (%rax), %rax
	pushq %rax
	movq -8(%rbp), %rax
	movq (%rax), %rax
	pushq %rax
	movl 24(%rbp), %eax
	movslq %eax, %rax
	movl $15, %edx
	movslq %edx, %rdx
	andq %rdx, %rax
	movq %rax, %rax
	movl $32, %edx
	movslq %edx, %rdx
	movb %dl, %cl
	salq %cl, %rax
	movq %rax, %rdx
	popq %rax
	orq %rdx, %rax
	popq %rbx
	movq %rax, (%rbx)
.loc 7 188 5
	movq 28(%rbp), %rax
	cmpq $0, %rax
	jz .L221_else
	subq $16, %rsp
.loc 7 189 9
	movq -8(%rbp), %rax
	leaq (%rax), %rax
	pushq %rax
	movq -8(%rbp), %rax
	movq (%rax), %rax
	pushq %rax
	movq 28(%rbp), %rax
	movq (%rax), %rax
	movl $31, %edx
	movslq %edx, %rdx
	andq %rdx, %rax
	movq %rax, %rax
	movl $36, %edx
	movslq %edx, %rdx
	movb %dl, %cl
	salq %cl, %rax
	movq %rax, %rdx
	popq %rax
	orq %rdx, %rax
	popq %rbx
	movq %rax, (%rbx)
	jmp .L221_end
	addq $16, %rsp
.L221_else:
	subq $16, %rsp
.loc 7 191 9
	movq -8(%rbp), %rax
	leaq (%rax), %rax
	pushq %rax
	movq -8(%rbp), %rax
	movq (%rax), %rax
	pushq %rax
	movl $31, %eax
	movslq %eax, %rax
	movl $36, %edx
	movslq %edx, %rdx
	movb %dl, %cl
	salq %cl, %rax
	movq %rax, %rdx
	popq %rax
	orq %rdx, %rax
	popq %rbx
	movq %rax, (%rbx)
	jmp .L221_end
	addq $16, %rsp
.L221_end:
.loc 7 193 5
	movq 36(%rbp), %rax
	cmpq $0, %rax
	jz .L222_else
	subq $16, %rsp
.loc 7 194 9
	movq -8(%rbp), %rax
	leaq (%rax), %rax
	pushq %rax
	movq -8(%rbp), %rax
	movq (%rax), %rax
	pushq %rax
	movq 36(%rbp), %rax
	movq (%rax), %rax
	movl $31, %edx
	movslq %edx, %rdx
	andq %rdx, %rax
	movq %rax, %rax
	movl $41, %edx
	movslq %edx, %rdx
	movb %dl, %cl
	salq %cl, %rax
	movq %rax, %rdx
	popq %rax
	orq %rdx, %rax
	popq %rbx
	movq %rax, (%rbx)
	jmp .L222_end
	addq $16, %rsp
.L222_else:
	subq $16, %rsp
.loc 7 196 9
	movq -8(%rbp), %rax
	leaq (%rax), %rax
	pushq %rax
	movq -8(%rbp), %rax
	movq (%rax), %rax
	pushq %rax
	movl $31, %eax
	movslq %eax, %rax
	movl $41, %edx
	movslq %edx, %rdx
	movb %dl, %cl
	salq %cl, %rax
	movq %rax, %rdx
	popq %rax
	orq %rdx, %rax
	popq %rbx
	movq %rax, (%rbx)
	jmp .L222_end
	addq $16, %rsp
.L222_end:
.loc 7 198 5
	movq -8(%rbp), %rax
	leaq (%rax), %rax
	pushq %rax
	movq -8(%rbp), %rax
	movq (%rax), %rax
	pushq %rax
	movl 16(%rbp), %eax
	movl $3, %edx
	andl %edx, %eax
	movl %eax, %eax
	movslq %eax, %rax
	movl $46, %edx
	movslq %edx, %rdx
	movb %dl, %cl
	salq %cl, %rax
	movq %rax, %rdx
	popq %rax
	orq %rdx, %rax
	popq %rbx
	movq %rax, (%rbx)
.loc 7 199 5
	movq -8(%rbp), %rax
	leaq 8(%rax), %rax
	pushq %rax
	movl $5, %eax
	popq %rbx
	movl %eax, (%rbx)
	movq -8(%rbp), %rax
	addq $16, %rsp
	leave
.cfi_def_cfa 7, 8
	ret
	addq $16, %rsp
	leave
.cfi_def_cfa 7, 8
	ret
.cfi_endproc
.loc 7 203 1
.globl make_stack
make_stack:
.cfi_startproc
	pushq %rbp
.cfi_def_cfa_offset 16
.cfi_offset 6, -16
	movq %rsp, %rbp
.cfi_def_cfa_register 6
	subq $4, %rsp
	subq $4, %rsp
	movq $6, %rax
	pushq %rax
	call make_reg
	movq %rax, %rax
	addq $8, %rsp
	addq $4, %rsp
	pushq %rax
	movl $0, %eax
	movslq %eax, %rax
	pushq %rax
	movl $0, %eax
	subq $4, %rsp
	movl %eax, (%rsp)
	movl 16(%rbp), %eax
	subq $4, %rsp
	movl %eax, (%rsp)
	movl $0, %eax
	subq $4, %rsp
	movl %eax, (%rsp)
	call make_mem
	movq %rax, %rax
	addq $8, %rsp
	addq $8, %rsp
	addq $4, %rsp
	addq $4, %rsp
	addq $4, %rsp
	addq $4, %rsp
	leave
.cfi_def_cfa 7, 8
	ret
	leave
.cfi_def_cfa 7, 8
	ret
.cfi_endproc
.loc 7 207 1
.loc 7 209 1
.globl add_instruction
add_instruction:
.cfi_startproc
	pushq %rbp
.cfi_def_cfa_offset 16
.cfi_offset 6, -16
	movq %rsp, %rbp
.cfi_def_cfa_register 6
	subq $16, %rsp
.loc 7 210 5
	movq $24, %rdi
	call malloc
	movq %rax, %rdi
	movq $0, %rsi
	movq $24, %rdx
	call memset
	movq %rax, %rax
	movq %rax, -8(%rbp)
.loc 7 211 5
	movq -8(%rbp), %rax
	leaq (%rax), %rax
	pushq %rax
	movq 32(%rbp), %rax
	popq %rbx
	movq %rax, (%rbx)
.loc 7 212 5
	movq -8(%rbp), %rax
	leaq 8(%rax), %rax
	pushq %rax
	movq 24(%rbp), %rax
	popq %rbx
	movq %rax, (%rbx)
.loc 7 213 5
	movq -8(%rbp), %rax
	leaq 16(%rax), %rax
	pushq %rax
	movl 20(%rbp), %eax
	popq %rbx
	movl %eax, (%rbx)
.loc 7 214 5
	movq -8(%rbp), %rax
	leaq 20(%rax), %rax
	pushq %rax
	movl 16(%rbp), %eax
	popq %rbx
	movl %eax, (%rbx)
.loc 7 215 5
	movq .instructions(%rip), %rax
	pushq %rax
	movq -8(%rbp), %rbx
	popq %rax
	call __append_quad
	movq (%rax), %rax
	addl $1, 8(%r12)
.loc 7 216 5
	movq 40(%rbp), %rax
	pushq %rax
	movq -8(%rbp), %rax
	pushq %rax
	call emit_instruction
	addq $8, %rsp
	addq $8, %rsp
	addq $16, %rsp
	leave
.cfi_def_cfa 7, 8
	ret
.cfi_endproc
.loc 7 219 1
.loc 7 220 1
.loc 7 221 1
.loc 7 223 1
.globl emit_operand_x86
emit_operand_x86:
.cfi_startproc
	pushq %rbp
.cfi_def_cfa_offset 16
.cfi_offset 6, -16
	movq %rsp, %rbp
.cfi_def_cfa_register 6
.loc 7 224 5
	movq 20(%rbp), %rax
	movl 8(%rax), %eax
	movl $0, %edx
	cmpl %edx, %eax
	sete %al
	movb %al, %al
	cmpb $0, %al
	jz .L224_elseif_0
.loc 7 225 9
	movq 20(%rbp), %rax
	movq (%rax), %rax
	movl $31, %edx
	movslq %edx, %rdx
	cmpq %rdx, %rax
	sete %al
	movb %al, %al
	cmpb $0, %al
	jz .L225_end
.loc 7 226 13
	leave
.cfi_def_cfa 7, 8
	ret
	jmp .L225_end
.L225_end:
.loc 7 228 9
	movl 16(%rbp), %eax
	movl $1, %edx
	cmpl %edx, %eax
	sete %al
	movb %al, %al
	cmpb $0, %al
	jz .L226_elseif_0
.loc 7 229 13
	movq 28(%rbp), %rax
	pushq %rax
	movq .register_names_byte(%rip), %rax
	movq (%rax), %rax
	pushq %rax
	movq 20(%rbp), %rax
	movq (%rax), %rdx
	popq %rax
	leaq (%rax, %rdx, 8), %rax
	movq (%rax), %rax
	pushq %rax
	call add_to_text_buffer
	addq $8, %rsp
	addq $8, %rsp
	jmp .L226_end
.L226_elseif_0:
	movl 16(%rbp), %eax
	movl $4, %edx
	cmpl %edx, %eax
	sete %al
	movb %al, %al
	cmpb $0, %al
	jz .L226_elseif_1
.loc 7 232 13
	movq 28(%rbp), %rax
	pushq %rax
	movq .register_names_dword(%rip), %rax
	movq (%rax), %rax
	pushq %rax
	movq 20(%rbp), %rax
	movq (%rax), %rdx
	popq %rax
	leaq (%rax, %rdx, 8), %rax
	movq (%rax), %rax
	pushq %rax
	call add_to_text_buffer
	addq $8, %rsp
	addq $8, %rsp
	jmp .L226_end
.L226_elseif_1:
	movl 16(%rbp), %eax
	movl $8, %edx
	cmpl %edx, %eax
	sete %al
	movb %al, %al
	cmpb $0, %al
	jz .L226_else
.loc 7 235 13
	movq 28(%rbp), %rax
	pushq %rax
	movq .register_names_qword(%rip), %rax
	movq (%rax), %rax
	pushq %rax
	movq 20(%rbp), %rax
	movq (%rax), %rdx
	popq %rax
	leaq (%rax, %rdx, 8), %rax
	movq (%rax), %rax
	pushq %rax
	call add_to_text_buffer
	addq $8, %rsp
	addq $8, %rsp
	jmp .L226_end
.L226_else:
.loc 7 238 13
	subq $8, %rsp
	leaq .str_261(%rip), %rax
	pushq %rax
	subq $12, %rsp
	movl 16(%rbp), %eax
	subq $4, %rsp
	movl %eax, (%rsp)
	call int_to_str
	movq %rax, %rdx
	addq $4, %rsp
	addq $12, %rsp
	popq %rax
	pushq %rdx
	pushq %rax
	movq $64, %rdi
	call malloc
	movq %rax, %r15
	movq $0, %r14
	movq $64, %r13
	popq %r12
	call __append_string_to_builder
	popq %r12
	subq $8, %rsp
	call __append_string_to_builder
	addq $8, %rsp
	movq %r15, %rax
	movq %rax, %rax
	leaq .str_262(%rip), %rdx
	movq %rdx, %r12
	subq $8, %rsp
	call __append_string_to_builder
	addq $8, %rsp
	movq %r15, %rax
	movq %rax, %rax
	pushq %rax
	call error
	addq $8, %rsp
	addq $8, %rsp
	jmp .L226_end
.L226_end:
	jmp .L224_end
.L224_elseif_0:
	movq 20(%rbp), %rax
	movl 8(%rax), %eax
	movl $5, %edx
	cmpl %edx, %eax
	sete %al
	movb %al, %al
	cmpb $0, %al
	jz .L224_elseif_1
	subq $48, %rsp
.loc 7 242 9
	movq 20(%rbp), %rax
	movq (%rax), %rax
	movl $46, %edx
	movslq %edx, %rdx
	movb %dl, %cl
	sarq %cl, %rax
	movq %rax, %rax
	movl $3, %edx
	movslq %edx, %rdx
	andq %rdx, %rax
	movq %rax, -8(%rbp)
.loc 7 243 9
	movq 20(%rbp), %rax
	movq (%rax), %rax
	pushq %rax
	movl $1, %eax
	movslq %eax, %rax
	movl $32, %edx
	movslq %edx, %rdx
	movb %dl, %cl
	salq %cl, %rax
	movq %rax, %rax
	movl $1, %edx
	movslq %edx, %rdx
	subq %rdx, %rax
	movq %rax, %rdx
	popq %rax
	andq %rdx, %rax
	movq %rax, %rax
	movl %eax, -12(%rbp)
.loc 7 244 9
	movq 20(%rbp), %rax
	movq (%rax), %rax
	movl $41, %edx
	movslq %edx, %rdx
	movb %dl, %cl
	sarq %cl, %rax
	movq %rax, %rax
	movl $31, %edx
	movslq %edx, %rdx
	andq %rdx, %rax
	movq %rax, -20(%rbp)
.loc 7 245 9
	movq 20(%rbp), %rax
	movq (%rax), %rax
	movl $36, %edx
	movslq %edx, %rdx
	movb %dl, %cl
	sarq %cl, %rax
	movq %rax, %rax
	movl $31, %edx
	movslq %edx, %rdx
	andq %rdx, %rax
	movq %rax, -28(%rbp)
.loc 7 246 9
	movq 20(%rbp), %rax
	movq (%rax), %rax
	movl $32, %edx
	movslq %edx, %rdx
	movb %dl, %cl
	sarq %cl, %rax
	movq %rax, %rax
	movl $15, %edx
	movslq %edx, %rdx
	andq %rdx, %rax
	movq %rax, -36(%rbp)
.loc 7 248 9
	movq -8(%rbp), %rax
	movl $0, %edx
	movslq %edx, %rdx
	cmpq %rdx, %rax
	sete %al
	movb %al, %al
	cmpb $0, %al
	jz .L230_elseif_0
	subq $48, %rsp
.loc 7 249 13
	movl -12(%rbp), %eax
	movl $0, %edx
	cmpl %edx, %eax
	setne %al
	movb %al, %al
	cmpb $0, %al
	jz .L231_end
	subq $48, %rsp
.loc 7 250 17
	movq 28(%rbp), %rax
	pushq %rax
	subq $4, %rsp
	movl -12(%rbp), %eax
	subq $4, %rsp
	movl %eax, (%rsp)
	call int_to_str
	movq %rax, %rax
	addq $4, %rsp
	addq $4, %rsp
	pushq %rax
	call add_to_text_buffer
	addq $8, %rsp
	addq $8, %rsp
	jmp .L231_end
	addq $48, %rsp
.L231_end:
.loc 7 252 13
	movq 28(%rbp), %rax
	pushq %rax
	leaq .str_263(%rip), %rax
	pushq %rax
	call add_to_text_buffer
	addq $8, %rsp
	addq $8, %rsp
.loc 7 253 13
	subq $12, %rsp
	movq 28(%rbp), %rax
	pushq %rax
	subq $4, %rsp
	movq -20(%rbp), %rax
	pushq %rax
	call make_reg
	movq %rax, %rax
	addq $8, %rsp
	addq $4, %rsp
	pushq %rax
	movl $8, %eax
	subq $4, %rsp
	movl %eax, (%rsp)
	call emit_operand_x86
	addq $8, %rsp
	addq $8, %rsp
	addq $4, %rsp
	addq $12, %rsp
.loc 7 254 13
	movq 28(%rbp), %rax
	pushq %rax
	leaq .str_264(%rip), %rax
	pushq %rax
	call add_to_text_buffer
	addq $8, %rsp
	addq $8, %rsp
	jmp .L230_end
	addq $48, %rsp
.L230_elseif_0:
	movq -8(%rbp), %rax
	movl $1, %edx
	movslq %edx, %rdx
	cmpq %rdx, %rax
	sete %al
	movb %al, %al
	cmpb $0, %al
	jz .L230_else
	subq $48, %rsp
.loc 7 257 13
	movq 28(%rbp), %rax
	pushq %rax
	leaq .str_265(%rip), %rax
	pushq %rax
	call add_to_text_buffer
	addq $8, %rsp
	addq $8, %rsp
.loc 7 258 13
	subq $12, %rsp
	movq 28(%rbp), %rax
	pushq %rax
	subq $4, %rsp
	movq -20(%rbp), %rax
	pushq %rax
	call make_reg
	movq %rax, %rax
	addq $8, %rsp
	addq $4, %rsp
	pushq %rax
	movl $8, %eax
	subq $4, %rsp
	movl %eax, (%rsp)
	call emit_operand_x86
	addq $8, %rsp
	addq $8, %rsp
	addq $4, %rsp
	addq $12, %rsp
.loc 7 259 13
	movq 28(%rbp), %rax
	pushq %rax
	leaq .str_266(%rip), %rax
	pushq %rax
	call add_to_text_buffer
	addq $8, %rsp
	addq $8, %rsp
.loc 7 260 13
	subq $12, %rsp
	movq 28(%rbp), %rax
	pushq %rax
	subq $4, %rsp
	movq -28(%rbp), %rax
	pushq %rax
	call make_reg
	movq %rax, %rax
	addq $8, %rsp
	addq $4, %rsp
	pushq %rax
	movl $8, %eax
	subq $4, %rsp
	movl %eax, (%rsp)
	call emit_operand_x86
	addq $8, %rsp
	addq $8, %rsp
	addq $4, %rsp
	addq $12, %rsp
.loc 7 261 13
	movq 28(%rbp), %rax
	pushq %rax
	leaq .str_267(%rip), %rax
	pushq %rax
	call add_to_text_buffer
	addq $8, %rsp
	addq $8, %rsp
.loc 7 262 13
	movq 28(%rbp), %rax
	pushq %rax
	movq -36(%rbp), %rax
	pushq %rax
	call long_to_str
	movq %rax, %rax
	addq $8, %rsp
	pushq %rax
	call add_to_text_buffer
	addq $8, %rsp
	addq $8, %rsp
.loc 7 263 13
	movq 28(%rbp), %rax
	pushq %rax
	leaq .str_268(%rip), %rax
	pushq %rax
	call add_to_text_buffer
	addq $8, %rsp
	addq $8, %rsp
	jmp .L230_end
	addq $48, %rsp
.L230_else:
	subq $48, %rsp
.loc 7 266 13
	subq $8, %rsp
	leaq .str_269(%rip), %rax
	pushq %rax
	subq $12, %rsp
	movq -8(%rbp), %rax
	subq $4, %rsp
	movl %eax, (%rsp)
	call int_to_str
	movq %rax, %rdx
	addq $4, %rsp
	addq $12, %rsp
	popq %rax
	pushq %rdx
	pushq %rax
	movq $64, %rdi
	call malloc
	movq %rax, %r15
	movq $0, %r14
	movq $64, %r13
	popq %r12
	call __append_string_to_builder
	popq %r12
	subq $8, %rsp
	call __append_string_to_builder
	addq $8, %rsp
	movq %r15, %rax
	movq %rax, %rax
	leaq .str_270(%rip), %rdx
	movq %rdx, %r12
	subq $8, %rsp
	call __append_string_to_builder
	addq $8, %rsp
	movq %r15, %rax
	movq %rax, %rax
	pushq %rax
	call error
	addq $8, %rsp
	addq $8, %rsp
	jmp .L230_end
	addq $48, %rsp
.L230_end:
	jmp .L224_end
	addq $48, %rsp
.L224_elseif_1:
	movq 20(%rbp), %rax
	movl 8(%rax), %eax
	movl $1, %edx
	cmpl %edx, %eax
	sete %al
	movb %al, %al
	cmpb $0, %al
	jz .L224_elseif_2
.loc 7 270 9
	movq 28(%rbp), %rax
	pushq %rax
	leaq .str_271(%rip), %rax
	pushq %rax
	subq $8, %rsp
	movq 20(%rbp), %rax
	movq (%rax), %rax
	pushq %rax
	call long_to_str
	movq %rax, %rdx
	addq $8, %rsp
	addq $8, %rsp
	popq %rax
	pushq %rdx
	pushq %rax
	movq $64, %rdi
	call malloc
	movq %rax, %r15
	movq $0, %r14
	movq $64, %r13
	popq %r12
	call __append_string_to_builder
	popq %r12
	subq $8, %rsp
	call __append_string_to_builder
	addq $8, %rsp
	movq %r15, %rax
	movq %rax, %rax
	pushq %rax
	call add_to_text_buffer
	addq $8, %rsp
	addq $8, %rsp
	jmp .L224_end
.L224_elseif_2:
	movq 20(%rbp), %rax
	movl 8(%rax), %eax
	movl $2, %edx
	cmpl %edx, %eax
	sete %al
	movb %al, %al
	pushq %rax
	movq 20(%rbp), %rax
	movl 8(%rax), %eax
	movl $3, %edx
	cmpl %edx, %eax
	sete %al
	movb %al, %dl
	popq %rax
	orb %dl, %al
	movb %al, %al
	cmpb $0, %al
	jz .L224_elseif_3
.loc 7 273 9
	movq 28(%rbp), %rax
	pushq %rax
	movq 20(%rbp), %rax
	movq (%rax), %rax
	pushq %rax
	call add_to_text_buffer
	addq $8, %rsp
	addq $8, %rsp
	jmp .L224_end
.L224_elseif_3:
	movq 20(%rbp), %rax
	movl 8(%rax), %eax
	movl $4, %edx
	cmpl %edx, %eax
	sete %al
	movb %al, %al
	cmpb $0, %al
	jz .L224_else
.loc 7 276 9
	movq 28(%rbp), %rax
	pushq %rax
	leaq .str_272(%rip), %rax
	pushq %rax
	movq 20(%rbp), %rax
	movq (%rax), %rdx
	popq %rax
	pushq %rdx
	pushq %rax
	movq $64, %rdi
	call malloc
	movq %rax, %r15
	movq $0, %r14
	movq $64, %r13
	popq %r12
	call __append_string_to_builder
	popq %r12
	subq $8, %rsp
	call __append_string_to_builder
	addq $8, %rsp
	movq %r15, %rax
	movq %rax, %rax
	leaq .str_273(%rip), %rdx
	movq %rdx, %r12
	subq $8, %rsp
	call __append_string_to_builder
	addq $8, %rsp
	movq %r15, %rax
	movq %rax, %rax
	pushq %rax
	call add_to_text_buffer
	addq $8, %rsp
	addq $8, %rsp
	jmp .L224_end
.L224_else:
.loc 7 279 9
	subq $8, %rsp
	leaq .str_274(%rip), %rax
	pushq %rax
	subq $12, %rsp
	movq 20(%rbp), %rax
	movl 8(%rax), %eax
	subq $4, %rsp
	movl %eax, (%rsp)
	call int_to_str
	movq %rax, %rdx
	addq $4, %rsp
	addq $12, %rsp
	popq %rax
	pushq %rdx
	pushq %rax
	movq $64, %rdi
	call malloc
	movq %rax, %r15
	movq $0, %r14
	movq $64, %r13
	popq %r12
	call __append_string_to_builder
	popq %r12
	subq $8, %rsp
	call __append_string_to_builder
	addq $8, %rsp
	movq %r15, %rax
	movq %rax, %rax
	leaq .str_275(%rip), %rdx
	movq %rdx, %r12
	subq $8, %rsp
	call __append_string_to_builder
	addq $8, %rsp
	movq %r15, %rax
	movq %rax, %rax
	pushq %rax
	call error
	addq $8, %rsp
	addq $8, %rsp
	jmp .L224_end
.L224_end:
	leave
.cfi_def_cfa 7, 8
	ret
.cfi_endproc
.loc 7 283 1
.globl add_size_letter
add_size_letter:
.cfi_startproc
	pushq %rbp
.cfi_def_cfa_offset 16
.cfi_offset 6, -16
	movq %rsp, %rbp
.cfi_def_cfa_register 6
.loc 7 284 5
	movl 16(%rbp), %eax
	movl $1, %edx
	cmpl %edx, %eax
	sete %al
	movb %al, %al
	cmpb $0, %al
	jz .L243_elseif_0
.loc 7 285 9
	movq 20(%rbp), %rax
	pushq %rax
	leaq .str_276(%rip), %rax
	pushq %rax
	call add_to_text_buffer
	addq $8, %rsp
	addq $8, %rsp
	jmp .L243_end
.L243_elseif_0:
	movl 16(%rbp), %eax
	movl $4, %edx
	cmpl %edx, %eax
	sete %al
	movb %al, %al
	cmpb $0, %al
	jz .L243_elseif_1
.loc 7 288 9
	movq 20(%rbp), %rax
	pushq %rax
	leaq .str_277(%rip), %rax
	pushq %rax
	call add_to_text_buffer
	addq $8, %rsp
	addq $8, %rsp
	jmp .L243_end
.L243_elseif_1:
	movl 16(%rbp), %eax
	movl $8, %edx
	cmpl %edx, %eax
	sete %al
	movb %al, %al
	cmpb $0, %al
	jz .L243_end
.loc 7 291 9
	movq 20(%rbp), %rax
	pushq %rax
	leaq .str_278(%rip), %rax
	pushq %rax
	call add_to_text_buffer
	addq $8, %rsp
	addq $8, %rsp
	jmp .L243_end
.L243_end:
	leave
.cfi_def_cfa 7, 8
	ret
.cfi_endproc
.loc 7 295 1
.globl emit_instruction_x86
emit_instruction_x86:
.cfi_startproc
	pushq %rbp
.cfi_def_cfa_offset 16
.cfi_offset 6, -16
	movq %rsp, %rbp
.cfi_def_cfa_register 6
	subq $16, %rsp
.loc 7 296 5
	movq 16(%rbp), %rax
	movl 16(%rax), %eax
	movl %eax, -4(%rbp)
.loc 7 297 5
	subq $12, %rsp
	movq 16(%rbp), %rax
	movl 20(%rax), %eax
	subq $4, %rsp
	movl %eax, (%rsp)
	call get_size
	movl %eax, %eax
	addq $4, %rsp
	addq $12, %rsp
	movl %eax, -8(%rbp)
.loc 7 298 5
	movl -4(%rbp), %eax
	movl $0, %edx
	cmpl %edx, %eax
	sete %al
	movb %al, %al
	pushq %rax
	movl -4(%rbp), %eax
	movl $2, %edx
	cmpl %edx, %eax
	sete %al
	movb %al, %dl
	popq %rax
	orb %dl, %al
	movb %al, %al
	pushq %rax
	movl -4(%rbp), %eax
	movl $1, %edx
	cmpl %edx, %eax
	sete %al
	movb %al, %dl
	popq %rax
	orb %dl, %al
	movb %al, %al
	pushq %rax
	movl -4(%rbp), %eax
	movl $3, %edx
	cmpl %edx, %eax
	sete %al
	movb %al, %dl
	popq %rax
	orb %dl, %al
	movb %al, %al
	pushq %rax
	movl -4(%rbp), %eax
	movl $5, %edx
	cmpl %edx, %eax
	sete %al
	movb %al, %dl
	popq %rax
	orb %dl, %al
	movb %al, %al
	pushq %rax
	movl -4(%rbp), %eax
	movl $4, %edx
	cmpl %edx, %eax
	sete %al
	movb %al, %dl
	popq %rax
	orb %dl, %al
	movb %al, %al
	pushq %rax
	movl -4(%rbp), %eax
	movl $13, %edx
	cmpl %edx, %eax
	sete %al
	movb %al, %dl
	popq %rax
	orb %dl, %al
	movb %al, %al
	pushq %rax
	movl -4(%rbp), %eax
	movl $6, %edx
	cmpl %edx, %eax
	sete %al
	movb %al, %dl
	popq %rax
	orb %dl, %al
	movb %al, %al
	pushq %rax
	movl -4(%rbp), %eax
	movl $10, %edx
	cmpl %edx, %eax
	sete %al
	movb %al, %dl
	popq %rax
	orb %dl, %al
	movb %al, %al
	pushq %rax
	movl -4(%rbp), %eax
	movl $11, %edx
	cmpl %edx, %eax
	sete %al
	movb %al, %dl
	popq %rax
	orb %dl, %al
	movb %al, %al
	pushq %rax
	movl -4(%rbp), %eax
	movl $12, %edx
	cmpl %edx, %eax
	sete %al
	movb %al, %dl
	popq %rax
	orb %dl, %al
	movb %al, %al
	pushq %rax
	movl -4(%rbp), %eax
	movl $34, %edx
	cmpl %edx, %eax
	sete %al
	movb %al, %dl
	popq %rax
	orb %dl, %al
	movb %al, %al
	pushq %rax
	movl -4(%rbp), %eax
	movl $35, %edx
	cmpl %edx, %eax
	sete %al
	movb %al, %dl
	popq %rax
	orb %dl, %al
	movb %al, -9(%rbp)
.loc 7 300 5
	movl -4(%rbp), %eax
	movl $24, %edx
	cmpl %edx, %eax
	sete %al
	movb %al, %al
	pushq %rax
	movl -4(%rbp), %eax
	movl $25, %edx
	cmpl %edx, %eax
	sete %al
	movb %al, %dl
	popq %rax
	orb %dl, %al
	movb %al, %al
	pushq %rax
	movl -4(%rbp), %eax
	movl $26, %edx
	cmpl %edx, %eax
	sete %al
	movb %al, %dl
	popq %rax
	orb %dl, %al
	movb %al, %al
	pushq %rax
	movl -4(%rbp), %eax
	movl $27, %edx
	cmpl %edx, %eax
	sete %al
	movb %al, %dl
	popq %rax
	orb %dl, %al
	movb %al, %al
	pushq %rax
	movl -4(%rbp), %eax
	movl $28, %edx
	cmpl %edx, %eax
	sete %al
	movb %al, %dl
	popq %rax
	orb %dl, %al
	movb %al, %al
	pushq %rax
	movl -4(%rbp), %eax
	movl $29, %edx
	cmpl %edx, %eax
	sete %al
	movb %al, %dl
	popq %rax
	orb %dl, %al
	movb %al, -10(%rbp)
.loc 7 302 5
	movl -4(%rbp), %eax
	movl $30, %edx
	cmpl %edx, %eax
	sete %al
	movb %al, %al
	pushq %rax
	movl -4(%rbp), %eax
	movl $31, %edx
	cmpl %edx, %eax
	sete %al
	movb %al, %dl
	popq %rax
	orb %dl, %al
	movb %al, -11(%rbp)
.loc 7 304 5
	movb -9(%rbp), %al
	cmpb $0, %al
	jz .L244_elseif_0
	subq $16, %rsp
.loc 7 305 9
	movl -4(%rbp), %eax
	movl $0, %edx
	cmpl %edx, %eax
	sete %al
	movb %al, %al
	pushq %rax
	movl -4(%rbp), %eax
	movl $1, %edx
	cmpl %edx, %eax
	sete %al
	movb %al, %dl
	popq %rax
	orb %dl, %al
	movb %al, %al
	pushq %rax
	movl -4(%rbp), %eax
	movl $2, %edx
	cmpl %edx, %eax
	sete %al
	movb %al, %dl
	popq %rax
	orb %dl, %al
	movb %al, %al
	pushq %rax
	movl -4(%rbp), %eax
	movl $34, %edx
	cmpl %edx, %eax
	sete %al
	movb %al, %dl
	popq %rax
	orb %dl, %al
	movb %al, %al
	cmpb $0, %al
	jz .L245_elseif_0
	subq $16, %rsp
.loc 7 306 13
	movq 24(%rbp), %rax
	pushq %rax
	leaq .str_279(%rip), %rax
	pushq %rax
	call add_to_text_buffer
	addq $8, %rsp
	addq $8, %rsp
	jmp .L245_end
	addq $16, %rsp
.L245_elseif_0:
	movl -4(%rbp), %eax
	movl $3, %edx
	cmpl %edx, %eax
	sete %al
	movb %al, %al
	pushq %rax
	movl -4(%rbp), %eax
	movl $35, %edx
	cmpl %edx, %eax
	sete %al
	movb %al, %dl
	popq %rax
	orb %dl, %al
	movb %al, %al
	cmpb $0, %al
	jz .L245_elseif_1
	subq $16, %rsp
.loc 7 309 13
	movq 24(%rbp), %rax
	pushq %rax
	leaq .str_280(%rip), %rax
	pushq %rax
	call add_to_text_buffer
	addq $8, %rsp
	addq $8, %rsp
	jmp .L245_end
	addq $16, %rsp
.L245_elseif_1:
	movl -4(%rbp), %eax
	movl $5, %edx
	cmpl %edx, %eax
	sete %al
	movb %al, %al
	cmpb $0, %al
	jz .L245_elseif_2
	subq $16, %rsp
.loc 7 312 13
	movq 24(%rbp), %rax
	pushq %rax
	leaq .str_281(%rip), %rax
	pushq %rax
	call add_to_text_buffer
	addq $8, %rsp
	addq $8, %rsp
	jmp .L245_end
	addq $16, %rsp
.L245_elseif_2:
	movl -4(%rbp), %eax
	movl $4, %edx
	cmpl %edx, %eax
	sete %al
	movb %al, %al
	cmpb $0, %al
	jz .L245_elseif_3
	subq $16, %rsp
.loc 7 315 13
	movq 24(%rbp), %rax
	pushq %rax
	leaq .str_282(%rip), %rax
	pushq %rax
	call add_to_text_buffer
	addq $8, %rsp
	addq $8, %rsp
	jmp .L245_end
	addq $16, %rsp
.L245_elseif_3:
	movl -4(%rbp), %eax
	movl $13, %edx
	cmpl %edx, %eax
	sete %al
	movb %al, %al
	cmpb $0, %al
	jz .L245_elseif_4
	subq $16, %rsp
.loc 7 318 13
	movq 24(%rbp), %rax
	pushq %rax
	leaq .str_283(%rip), %rax
	pushq %rax
	call add_to_text_buffer
	addq $8, %rsp
	addq $8, %rsp
	jmp .L245_end
	addq $16, %rsp
.L245_elseif_4:
	movl -4(%rbp), %eax
	movl $6, %edx
	cmpl %edx, %eax
	sete %al
	movb %al, %al
	cmpb $0, %al
	jz .L245_elseif_5
	subq $16, %rsp
.loc 7 321 13
	movq 24(%rbp), %rax
	pushq %rax
	leaq .str_284(%rip), %rax
	pushq %rax
	call add_to_text_buffer
	addq $8, %rsp
	addq $8, %rsp
	jmp .L245_end
	addq $16, %rsp
.L245_elseif_5:
	movl -4(%rbp), %eax
	movl $10, %edx
	cmpl %edx, %eax
	sete %al
	movb %al, %al
	cmpb $0, %al
	jz .L245_elseif_6
	subq $16, %rsp
.loc 7 324 13
	movq 24(%rbp), %rax
	pushq %rax
	leaq .str_285(%rip), %rax
	pushq %rax
	call add_to_text_buffer
	addq $8, %rsp
	addq $8, %rsp
	jmp .L245_end
	addq $16, %rsp
.L245_elseif_6:
	movl -4(%rbp), %eax
	movl $11, %edx
	cmpl %edx, %eax
	sete %al
	movb %al, %al
	cmpb $0, %al
	jz .L245_elseif_7
	subq $16, %rsp
.loc 7 327 13
	movq 24(%rbp), %rax
	pushq %rax
	leaq .str_286(%rip), %rax
	pushq %rax
	call add_to_text_buffer
	addq $8, %rsp
	addq $8, %rsp
	jmp .L245_end
	addq $16, %rsp
.L245_elseif_7:
	movl -4(%rbp), %eax
	movl $12, %edx
	cmpl %edx, %eax
	sete %al
	movb %al, %al
	cmpb $0, %al
	jz .L245_else
	subq $16, %rsp
.loc 7 330 13
	movq 24(%rbp), %rax
	pushq %rax
	leaq .str_287(%rip), %rax
	pushq %rax
	call add_to_text_buffer
	addq $8, %rsp
	addq $8, %rsp
	jmp .L245_end
	addq $16, %rsp
.L245_else:
	subq $16, %rsp
.loc 7 333 13
	subq $8, %rsp
	leaq .str_288(%rip), %rax
	pushq %rax
	subq $12, %rsp
	movl -4(%rbp), %eax
	subq $4, %rsp
	movl %eax, (%rsp)
	call int_to_str
	movq %rax, %rdx
	addq $4, %rsp
	addq $12, %rsp
	popq %rax
	pushq %rdx
	pushq %rax
	movq $64, %rdi
	call malloc
	movq %rax, %r15
	movq $0, %r14
	movq $64, %r13
	popq %r12
	call __append_string_to_builder
	popq %r12
	subq $8, %rsp
	call __append_string_to_builder
	addq $8, %rsp
	movq %r15, %rax
	movq %rax, %rax
	leaq .str_289(%rip), %rdx
	movq %rdx, %r12
	subq $8, %rsp
	call __append_string_to_builder
	addq $8, %rsp
	movq %r15, %rax
	movq %rax, %rax
	pushq %rax
	call error
	addq $8, %rsp
	addq $8, %rsp
	jmp .L245_end
	addq $16, %rsp
.L245_end:
.loc 7 336 9
	subq $4, %rsp
	movq 24(%rbp), %rax
	pushq %rax
	movl -8(%rbp), %eax
	subq $4, %rsp
	movl %eax, (%rsp)
	call add_size_letter
	addq $8, %rsp
	addq $4, %rsp
	addq $4, %rsp
.loc 7 338 9
	movq 24(%rbp), %rax
	pushq %rax
	leaq .str_290(%rip), %rax
	pushq %rax
	call add_to_text_buffer
	addq $8, %rsp
	addq $8, %rsp
.loc 7 339 9
	subq $12, %rsp
	movq 24(%rbp), %rax
	pushq %rax
	movq 16(%rbp), %rax
	movq (%rax), %rax
	pushq %rax
	movl -8(%rbp), %eax
	subq $4, %rsp
	movl %eax, (%rsp)
	call emit_operand_x86
	addq $8, %rsp
	addq $8, %rsp
	addq $4, %rsp
	addq $12, %rsp
.loc 7 340 9
	movq 24(%rbp), %rax
	pushq %rax
	leaq .str_291(%rip), %rax
	pushq %rax
	call add_to_text_buffer
	addq $8, %rsp
	addq $8, %rsp
.loc 7 341 9
	subq $12, %rsp
	movq 24(%rbp), %rax
	pushq %rax
	movq 16(%rbp), %rax
	movq 8(%rax), %rax
	pushq %rax
	movl -8(%rbp), %eax
	subq $4, %rsp
	movl %eax, (%rsp)
	call emit_operand_x86
	addq $8, %rsp
	addq $8, %rsp
	addq $4, %rsp
	addq $12, %rsp
.loc 7 342 9
	movq 24(%rbp), %rax
	pushq %rax
	leaq .str_292(%rip), %rax
	pushq %rax
	call add_to_text_buffer
	addq $8, %rsp
	addq $8, %rsp
	jmp .L244_end
	addq $16, %rsp
.L244_elseif_0:
	movb -10(%rbp), %al
	cmpb $0, %al
	jz .L244_elseif_1
	subq $16, %rsp
.loc 7 345 9
	movq 24(%rbp), %rax
	pushq %rax
	leaq .str_293(%rip), %rax
	pushq %rax
	call add_to_text_buffer
	addq $8, %rsp
	addq $8, %rsp
.loc 7 346 9
	subq $4, %rsp
	movq 24(%rbp), %rax
	pushq %rax
	movl -8(%rbp), %eax
	subq $4, %rsp
	movl %eax, (%rsp)
	call add_size_letter
	addq $8, %rsp
	addq $4, %rsp
	addq $4, %rsp
.loc 7 347 9
	movq 24(%rbp), %rax
	pushq %rax
	leaq .str_294(%rip), %rax
	pushq %rax
	call add_to_text_buffer
	addq $8, %rsp
	addq $8, %rsp
.loc 7 348 9
	subq $12, %rsp
	movq 24(%rbp), %rax
	pushq %rax
	movq 16(%rbp), %rax
	movq (%rax), %rax
	pushq %rax
	movl -8(%rbp), %eax
	subq $4, %rsp
	movl %eax, (%rsp)
	call emit_operand_x86
	addq $8, %rsp
	addq $8, %rsp
	addq $4, %rsp
	addq $12, %rsp
.loc 7 349 9
	movq 24(%rbp), %rax
	pushq %rax
	leaq .str_295(%rip), %rax
	pushq %rax
	call add_to_text_buffer
	addq $8, %rsp
	addq $8, %rsp
.loc 7 350 9
	subq $12, %rsp
	movq 24(%rbp), %rax
	pushq %rax
	movq 16(%rbp), %rax
	movq 8(%rax), %rax
	pushq %rax
	movl -8(%rbp), %eax
	subq $4, %rsp
	movl %eax, (%rsp)
	call emit_operand_x86
	addq $8, %rsp
	addq $8, %rsp
	addq $4, %rsp
	addq $12, %rsp
.loc 7 351 9
	movq 24(%rbp), %rax
	pushq %rax
	leaq .str_296(%rip), %rax
	pushq %rax
	call add_to_text_buffer
	addq $8, %rsp
	addq $8, %rsp
.loc 7 352 9
	movl -4(%rbp), %eax
	movl $24, %edx
	cmpl %edx, %eax
	sete %al
	movb %al, %al
	cmpb $0, %al
	jz .L249_elseif_0
	subq $16, %rsp
.loc 7 353 13
	movq 24(%rbp), %rax
	pushq %rax
	leaq .str_297(%rip), %rax
	pushq %rax
	call add_to_text_buffer
	addq $8, %rsp
	addq $8, %rsp
	jmp .L249_end
	addq $16, %rsp
.L249_elseif_0:
	movl -4(%rbp), %eax
	movl $25, %edx
	cmpl %edx, %eax
	sete %al
	movb %al, %al
	cmpb $0, %al
	jz .L249_elseif_1
	subq $16, %rsp
.loc 7 356 13
	movq 24(%rbp), %rax
	pushq %rax
	leaq .str_298(%rip), %rax
	pushq %rax
	call add_to_text_buffer
	addq $8, %rsp
	addq $8, %rsp
	jmp .L249_end
	addq $16, %rsp
.L249_elseif_1:
	movl -4(%rbp), %eax
	movl $26, %edx
	cmpl %edx, %eax
	sete %al
	movb %al, %al
	cmpb $0, %al
	jz .L249_elseif_2
	subq $16, %rsp
.loc 7 359 13
	movq 24(%rbp), %rax
	pushq %rax
	leaq .str_299(%rip), %rax
	pushq %rax
	call add_to_text_buffer
	addq $8, %rsp
	addq $8, %rsp
	jmp .L249_end
	addq $16, %rsp
.L249_elseif_2:
	movl -4(%rbp), %eax
	movl $27, %edx
	cmpl %edx, %eax
	sete %al
	movb %al, %al
	cmpb $0, %al
	jz .L249_elseif_3
	subq $16, %rsp
.loc 7 362 13
	movq 24(%rbp), %rax
	pushq %rax
	leaq .str_300(%rip), %rax
	pushq %rax
	call add_to_text_buffer
	addq $8, %rsp
	addq $8, %rsp
	jmp .L249_end
	addq $16, %rsp
.L249_elseif_3:
	movl -4(%rbp), %eax
	movl $28, %edx
	cmpl %edx, %eax
	sete %al
	movb %al, %al
	cmpb $0, %al
	jz .L249_elseif_4
	subq $16, %rsp
.loc 7 365 13
	movq 24(%rbp), %rax
	pushq %rax
	leaq .str_301(%rip), %rax
	pushq %rax
	call add_to_text_buffer
	addq $8, %rsp
	addq $8, %rsp
	jmp .L249_end
	addq $16, %rsp
.L249_elseif_4:
	movl -4(%rbp), %eax
	movl $29, %edx
	cmpl %edx, %eax
	sete %al
	movb %al, %al
	cmpb $0, %al
	jz .L249_end
	subq $16, %rsp
.loc 7 368 13
	movq 24(%rbp), %rax
	pushq %rax
	leaq .str_302(%rip), %rax
	pushq %rax
	call add_to_text_buffer
	addq $8, %rsp
	addq $8, %rsp
	jmp .L249_end
	addq $16, %rsp
.L249_end:
.loc 7 370 9
	movq 24(%rbp), %rax
	pushq %rax
	leaq .str_303(%rip), %rax
	pushq %rax
	call add_to_text_buffer
	addq $8, %rsp
	addq $8, %rsp
.loc 7 371 9
	movq 24(%rbp), %rax
	pushq %rax
	leaq .str_304(%rip), %rax
	pushq %rax
	call add_to_text_buffer
	addq $8, %rsp
	addq $8, %rsp
.loc 7 372 9
	movq 24(%rbp), %rax
	pushq %rax
	leaq .str_305(%rip), %rax
	pushq %rax
	call add_to_text_buffer
	addq $8, %rsp
	addq $8, %rsp
	jmp .L244_end
	addq $16, %rsp
.L244_elseif_1:
	movb -11(%rbp), %al
	cmpb $0, %al
	jz .L244_else
	subq $16, %rsp
.loc 7 375 9
	movl -4(%rbp), %eax
	movl $30, %edx
	cmpl %edx, %eax
	sete %al
	movb %al, %al
	cmpb $0, %al
	jz .L250_elseif_0
	subq $16, %rsp
.loc 7 376 13
	movq 24(%rbp), %rax
	pushq %rax
	leaq .str_306(%rip), %rax
	pushq %rax
	call add_to_text_buffer
	addq $8, %rsp
	addq $8, %rsp
	jmp .L250_end
	addq $16, %rsp
.L250_elseif_0:
	movl -4(%rbp), %eax
	movl $31, %edx
	cmpl %edx, %eax
	sete %al
	movb %al, %al
	cmpb $0, %al
	jz .L250_else
	subq $16, %rsp
.loc 7 379 13
	movq 24(%rbp), %rax
	pushq %rax
	leaq .str_307(%rip), %rax
	pushq %rax
	call add_to_text_buffer
	addq $8, %rsp
	addq $8, %rsp
	jmp .L250_end
	addq $16, %rsp
.L250_else:
	subq $16, %rsp
.loc 7 382 13
	subq $8, %rsp
	leaq .str_308(%rip), %rax
	pushq %rax
	subq $12, %rsp
	movl -4(%rbp), %eax
	subq $4, %rsp
	movl %eax, (%rsp)
	call int_to_str
	movq %rax, %rdx
	addq $4, %rsp
	addq $12, %rsp
	popq %rax
	pushq %rdx
	pushq %rax
	movq $64, %rdi
	call malloc
	movq %rax, %r15
	movq $0, %r14
	movq $64, %r13
	popq %r12
	call __append_string_to_builder
	popq %r12
	subq $8, %rsp
	call __append_string_to_builder
	addq $8, %rsp
	movq %r15, %rax
	movq %rax, %rax
	leaq .str_309(%rip), %rdx
	movq %rdx, %r12
	subq $8, %rsp
	call __append_string_to_builder
	addq $8, %rsp
	movq %r15, %rax
	movq %rax, %rax
	pushq %rax
	call error
	addq $8, %rsp
	addq $8, %rsp
	jmp .L250_end
	addq $16, %rsp
.L250_end:
.loc 7 384 9
	movq 24(%rbp), %rax
	pushq %rax
	leaq .str_310(%rip), %rax
	pushq %rax
	call add_to_text_buffer
	addq $8, %rsp
	addq $8, %rsp
.loc 7 385 9
	subq $12, %rsp
	movq 24(%rbp), %rax
	pushq %rax
	movq 16(%rbp), %rax
	movq (%rax), %rax
	pushq %rax
	movl -8(%rbp), %eax
	subq $4, %rsp
	movl %eax, (%rsp)
	call emit_operand_x86
	addq $8, %rsp
	addq $8, %rsp
	addq $4, %rsp
	addq $12, %rsp
.loc 7 386 9
	movq 24(%rbp), %rax
	pushq %rax
	leaq .str_311(%rip), %rax
	pushq %rax
	call add_to_text_buffer
	addq $8, %rsp
	addq $8, %rsp
	jmp .L244_end
	addq $16, %rsp
.L244_else:
	subq $16, %rsp
.loc 7 389 9
	movl -4(%rbp), %eax
	movl $15, %edx
	cmpl %edx, %eax
	sete %al
	movb %al, %al
	cmpb $0, %al
	jz .L254_elseif_0
	subq $16, %rsp
.loc 7 390 13
	movq 24(%rbp), %rax
	pushq %rax
	leaq .str_312(%rip), %rax
	pushq %rax
	call add_to_text_buffer
	addq $8, %rsp
	addq $8, %rsp
.loc 7 391 13
	subq $4, %rsp
	movq 24(%rbp), %rax
	pushq %rax
	movl -8(%rbp), %eax
	subq $4, %rsp
	movl %eax, (%rsp)
	call add_size_letter
	addq $8, %rsp
	addq $4, %rsp
	addq $4, %rsp
.loc 7 392 13
	movq 24(%rbp), %rax
	pushq %rax
	leaq .str_313(%rip), %rax
	pushq %rax
	call add_to_text_buffer
	addq $8, %rsp
	addq $8, %rsp
.loc 7 393 13
	subq $12, %rsp
	movq 24(%rbp), %rax
	pushq %rax
	movq 16(%rbp), %rax
	movq 8(%rax), %rax
	pushq %rax
	movl -8(%rbp), %eax
	subq $4, %rsp
	movl %eax, (%rsp)
	call emit_operand_x86
	addq $8, %rsp
	addq $8, %rsp
	addq $4, %rsp
	addq $12, %rsp
.loc 7 394 13
	movq 24(%rbp), %rax
	pushq %rax
	leaq .str_314(%rip), %rax
	pushq %rax
	call add_to_text_buffer
	addq $8, %rsp
	addq $8, %rsp
	jmp .L254_end
	addq $16, %rsp
.L254_elseif_0:
	movl -4(%rbp), %eax
	movl $16, %edx
	cmpl %edx, %eax
	sete %al
	movb %al, %al
	cmpb $0, %al
	jz .L254_elseif_1
	subq $16, %rsp
.loc 7 397 13
	movq 24(%rbp), %rax
	pushq %rax
	leaq .str_315(%rip), %rax
	pushq %rax
	call add_to_text_buffer
	addq $8, %rsp
	addq $8, %rsp
.loc 7 398 13
	subq $4, %rsp
	movq 24(%rbp), %rax
	pushq %rax
	movl -8(%rbp), %eax
	subq $4, %rsp
	movl %eax, (%rsp)
	call add_size_letter
	addq $8, %rsp
	addq $4, %rsp
	addq $4, %rsp
.loc 7 399 13
	movq 24(%rbp), %rax
	pushq %rax
	leaq .str_316(%rip), %rax
	pushq %rax
	call add_to_text_buffer
	addq $8, %rsp
	addq $8, %rsp
.loc 7 400 13
	subq $12, %rsp
	movq 24(%rbp), %rax
	pushq %rax
	movq 16(%rbp), %rax
	movq 8(%rax), %rax
	pushq %rax
	movl -8(%rbp), %eax
	subq $4, %rsp
	movl %eax, (%rsp)
	call emit_operand_x86
	addq $8, %rsp
	addq $8, %rsp
	addq $4, %rsp
	addq $12, %rsp
.loc 7 401 13
	movq 24(%rbp), %rax
	pushq %rax
	leaq .str_317(%rip), %rax
	pushq %rax
	call add_to_text_buffer
	addq $8, %rsp
	addq $8, %rsp
	jmp .L254_end
	addq $16, %rsp
.L254_elseif_1:
	movl -4(%rbp), %eax
	movl $14, %edx
	cmpl %edx, %eax
	sete %al
	movb %al, %al
	cmpb $0, %al
	jz .L254_elseif_2
	subq $16, %rsp
.loc 7 404 13
	movq 24(%rbp), %rax
	pushq %rax
	leaq .str_318(%rip), %rax
	pushq %rax
	call add_to_text_buffer
	addq $8, %rsp
	addq $8, %rsp
.loc 7 405 13
	subq $4, %rsp
	movq 24(%rbp), %rax
	pushq %rax
	movl -8(%rbp), %eax
	subq $4, %rsp
	movl %eax, (%rsp)
	call add_size_letter
	addq $8, %rsp
	addq $4, %rsp
	addq $4, %rsp
.loc 7 406 13
	movq 24(%rbp), %rax
	pushq %rax
	leaq .str_319(%rip), %rax
	pushq %rax
	call add_to_text_buffer
	addq $8, %rsp
	addq $8, %rsp
.loc 7 407 13
	subq $12, %rsp
	movq 24(%rbp), %rax
	pushq %rax
	movq 16(%rbp), %rax
	movq (%rax), %rax
	pushq %rax
	movl -8(%rbp), %eax
	subq $4, %rsp
	movl %eax, (%rsp)
	call emit_operand_x86
	addq $8, %rsp
	addq $8, %rsp
	addq $4, %rsp
	addq $12, %rsp
.loc 7 408 13
	movq 24(%rbp), %rax
	pushq %rax
	leaq .str_320(%rip), %rax
	pushq %rax
	call add_to_text_buffer
	addq $8, %rsp
	addq $8, %rsp
.loc 7 409 13
	subq $12, %rsp
	movq 24(%rbp), %rax
	pushq %rax
	movq 16(%rbp), %rax
	movq (%rax), %rax
	pushq %rax
	movl -8(%rbp), %eax
	subq $4, %rsp
	movl %eax, (%rsp)
	call emit_operand_x86
	addq $8, %rsp
	addq $8, %rsp
	addq $4, %rsp
	addq $12, %rsp
.loc 7 410 13
	movq 24(%rbp), %rax
	pushq %rax
	leaq .str_321(%rip), %rax
	pushq %rax
	call add_to_text_buffer
	addq $8, %rsp
	addq $8, %rsp
.loc 7 411 13
	subq $12, %rsp
	movq 24(%rbp), %rax
	pushq %rax
	movq 16(%rbp), %rax
	movq 8(%rax), %rax
	pushq %rax
	movl -8(%rbp), %eax
	subq $4, %rsp
	movl %eax, (%rsp)
	call emit_operand_x86
	addq $8, %rsp
	addq $8, %rsp
	addq $4, %rsp
	addq $12, %rsp
.loc 7 412 13
	movq 24(%rbp), %rax
	pushq %rax
	leaq .str_322(%rip), %rax
	pushq %rax
	call add_to_text_buffer
	addq $8, %rsp
	addq $8, %rsp
	jmp .L254_end
	addq $16, %rsp
.L254_elseif_2:
	movl -4(%rbp), %eax
	movl $17, %edx
	cmpl %edx, %eax
	sete %al
	movb %al, %al
	cmpb $0, %al
	jz .L254_elseif_3
	subq $16, %rsp
.loc 7 415 13
	movq 24(%rbp), %rax
	pushq %rax
	leaq .str_323(%rip), %rax
	pushq %rax
	call add_to_text_buffer
	addq $8, %rsp
	addq $8, %rsp
.loc 7 416 13
	subq $12, %rsp
	movq 24(%rbp), %rax
	pushq %rax
	movq 16(%rbp), %rax
	movq (%rax), %rax
	pushq %rax
	movl -8(%rbp), %eax
	subq $4, %rsp
	movl %eax, (%rsp)
	call emit_operand_x86
	addq $8, %rsp
	addq $8, %rsp
	addq $4, %rsp
	addq $12, %rsp
.loc 7 417 13
	movq 24(%rbp), %rax
	pushq %rax
	leaq .str_324(%rip), %rax
	pushq %rax
	call add_to_text_buffer
	addq $8, %rsp
	addq $8, %rsp
	jmp .L254_end
	addq $16, %rsp
.L254_elseif_3:
	movl -4(%rbp), %eax
	movl $20, %edx
	cmpl %edx, %eax
	sete %al
	movb %al, %al
	cmpb $0, %al
	jz .L254_elseif_4
	subq $16, %rsp
.loc 7 420 13
	movq 24(%rbp), %rax
	pushq %rax
	leaq .str_325(%rip), %rax
	pushq %rax
	call add_to_text_buffer
	addq $8, %rsp
	addq $8, %rsp
.loc 7 421 13
	subq $12, %rsp
	movq 24(%rbp), %rax
	pushq %rax
	movq 16(%rbp), %rax
	movq 8(%rax), %rax
	pushq %rax
	movl -8(%rbp), %eax
	subq $4, %rsp
	movl %eax, (%rsp)
	call emit_operand_x86
	addq $8, %rsp
	addq $8, %rsp
	addq $4, %rsp
	addq $12, %rsp
.loc 7 422 13
	movq 24(%rbp), %rax
	pushq %rax
	leaq .str_326(%rip), %rax
	pushq %rax
	call add_to_text_buffer
	addq $8, %rsp
	addq $8, %rsp
	jmp .L254_end
	addq $16, %rsp
.L254_elseif_4:
	movl -4(%rbp), %eax
	movl $21, %edx
	cmpl %edx, %eax
	sete %al
	movb %al, %al
	cmpb $0, %al
	jz .L254_elseif_5
	subq $16, %rsp
.loc 7 425 13
	movq 24(%rbp), %rax
	pushq %rax
	leaq .str_327(%rip), %rax
	pushq %rax
	call add_to_text_buffer
	addq $8, %rsp
	addq $8, %rsp
.loc 7 426 13
	subq $12, %rsp
	movq 24(%rbp), %rax
	pushq %rax
	movq 16(%rbp), %rax
	movq 8(%rax), %rax
	pushq %rax
	movl -8(%rbp), %eax
	subq $4, %rsp
	movl %eax, (%rsp)
	call emit_operand_x86
	addq $8, %rsp
	addq $8, %rsp
	addq $4, %rsp
	addq $12, %rsp
.loc 7 427 13
	movq 24(%rbp), %rax
	pushq %rax
	leaq .str_328(%rip), %rax
	pushq %rax
	call add_to_text_buffer
	addq $8, %rsp
	addq $8, %rsp
	jmp .L254_end
	addq $16, %rsp
.L254_elseif_5:
	movl -4(%rbp), %eax
	movl $18, %edx
	cmpl %edx, %eax
	sete %al
	movb %al, %al
	cmpb $0, %al
	jz .L254_elseif_6
	subq $16, %rsp
.loc 7 430 13
	movq 24(%rbp), %rax
	pushq %rax
	leaq .str_329(%rip), %rax
	pushq %rax
	call add_to_text_buffer
	addq $8, %rsp
	addq $8, %rsp
.loc 7 431 13
	subq $4, %rsp
	movq 24(%rbp), %rax
	pushq %rax
	movl -8(%rbp), %eax
	subq $4, %rsp
	movl %eax, (%rsp)
	call add_size_letter
	addq $8, %rsp
	addq $4, %rsp
	addq $4, %rsp
.loc 7 432 13
	movq 24(%rbp), %rax
	pushq %rax
	leaq .str_330(%rip), %rax
	pushq %rax
	call add_to_text_buffer
	addq $8, %rsp
	addq $8, %rsp
.loc 7 433 13
	subq $12, %rsp
	movq 24(%rbp), %rax
	pushq %rax
	movq 16(%rbp), %rax
	movq (%rax), %rax
	pushq %rax
	movl -8(%rbp), %eax
	subq $4, %rsp
	movl %eax, (%rsp)
	call emit_operand_x86
	addq $8, %rsp
	addq $8, %rsp
	addq $4, %rsp
	addq $12, %rsp
.loc 7 434 13
	movq 24(%rbp), %rax
	pushq %rax
	leaq .str_331(%rip), %rax
	pushq %rax
	call add_to_text_buffer
	addq $8, %rsp
	addq $8, %rsp
	jmp .L254_end
	addq $16, %rsp
.L254_elseif_6:
	movl -4(%rbp), %eax
	movl $19, %edx
	cmpl %edx, %eax
	sete %al
	movb %al, %al
	cmpb $0, %al
	jz .L254_elseif_7
	subq $16, %rsp
.loc 7 437 13
	movq 24(%rbp), %rax
	pushq %rax
	leaq .str_332(%rip), %rax
	pushq %rax
	call add_to_text_buffer
	addq $8, %rsp
	addq $8, %rsp
.loc 7 438 13
	subq $4, %rsp
	movq 24(%rbp), %rax
	pushq %rax
	movl -8(%rbp), %eax
	subq $4, %rsp
	movl %eax, (%rsp)
	call add_size_letter
	addq $8, %rsp
	addq $4, %rsp
	addq $4, %rsp
.loc 7 439 13
	movq 24(%rbp), %rax
	pushq %rax
	leaq .str_333(%rip), %rax
	pushq %rax
	call add_to_text_buffer
	addq $8, %rsp
	addq $8, %rsp
.loc 7 440 13
	subq $12, %rsp
	movq 24(%rbp), %rax
	pushq %rax
	movq 16(%rbp), %rax
	movq (%rax), %rax
	pushq %rax
	movl -8(%rbp), %eax
	subq $4, %rsp
	movl %eax, (%rsp)
	call emit_operand_x86
	addq $8, %rsp
	addq $8, %rsp
	addq $4, %rsp
	addq $12, %rsp
.loc 7 441 13
	movq 24(%rbp), %rax
	pushq %rax
	leaq .str_334(%rip), %rax
	pushq %rax
	call add_to_text_buffer
	addq $8, %rsp
	addq $8, %rsp
	jmp .L254_end
	addq $16, %rsp
.L254_elseif_7:
	movl -4(%rbp), %eax
	movl $8, %edx
	cmpl %edx, %eax
	sete %al
	movb %al, %al
	cmpb $0, %al
	jz .L254_elseif_8
	subq $16, %rsp
.loc 7 445 13
	movq 24(%rbp), %rax
	pushq %rax
	leaq .str_335(%rip), %rax
	pushq %rax
	call add_to_text_buffer
	addq $8, %rsp
	addq $8, %rsp
.loc 7 446 13
	subq $12, %rsp
	movq 24(%rbp), %rax
	pushq %rax
	movq 16(%rbp), %rax
	movq (%rax), %rax
	pushq %rax
	movl $1, %eax
	subq $4, %rsp
	movl %eax, (%rsp)
	call emit_operand_x86
	addq $8, %rsp
	addq $8, %rsp
	addq $4, %rsp
	addq $12, %rsp
.loc 7 447 13
	movq 24(%rbp), %rax
	pushq %rax
	leaq .str_336(%rip), %rax
	pushq %rax
	call add_to_text_buffer
	addq $8, %rsp
	addq $8, %rsp
.loc 7 448 13
	movq 24(%rbp), %rax
	pushq %rax
	leaq .str_337(%rip), %rax
	pushq %rax
	call add_to_text_buffer
	addq $8, %rsp
	addq $8, %rsp
.loc 7 449 13
	subq $4, %rsp
	movq 24(%rbp), %rax
	pushq %rax
	movl -8(%rbp), %eax
	subq $4, %rsp
	movl %eax, (%rsp)
	call add_size_letter
	addq $8, %rsp
	addq $4, %rsp
	addq $4, %rsp
.loc 7 450 13
	movq 24(%rbp), %rax
	pushq %rax
	leaq .str_338(%rip), %rax
	pushq %rax
	call add_to_text_buffer
	addq $8, %rsp
	addq $8, %rsp
.loc 7 451 13
	movq 24(%rbp), %rax
	pushq %rax
	leaq .str_339(%rip), %rax
	pushq %rax
	call add_to_text_buffer
	addq $8, %rsp
	addq $8, %rsp
.loc 7 452 13
	subq $12, %rsp
	movq 24(%rbp), %rax
	pushq %rax
	movq 16(%rbp), %rax
	movq 8(%rax), %rax
	pushq %rax
	movl -8(%rbp), %eax
	subq $4, %rsp
	movl %eax, (%rsp)
	call emit_operand_x86
	addq $8, %rsp
	addq $8, %rsp
	addq $4, %rsp
	addq $12, %rsp
.loc 7 453 13
	movq 24(%rbp), %rax
	pushq %rax
	leaq .str_340(%rip), %rax
	pushq %rax
	call add_to_text_buffer
	addq $8, %rsp
	addq $8, %rsp
	jmp .L254_end
	addq $16, %rsp
.L254_elseif_8:
	movl -4(%rbp), %eax
	movl $9, %edx
	cmpl %edx, %eax
	sete %al
	movb %al, %al
	cmpb $0, %al
	jz .L254_elseif_9
	subq $16, %rsp
.loc 7 456 13
	movq 24(%rbp), %rax
	pushq %rax
	leaq .str_341(%rip), %rax
	pushq %rax
	call add_to_text_buffer
	addq $8, %rsp
	addq $8, %rsp
.loc 7 457 13
	subq $12, %rsp
	movq 24(%rbp), %rax
	pushq %rax
	movq 16(%rbp), %rax
	movq (%rax), %rax
	pushq %rax
	movl $1, %eax
	subq $4, %rsp
	movl %eax, (%rsp)
	call emit_operand_x86
	addq $8, %rsp
	addq $8, %rsp
	addq $4, %rsp
	addq $12, %rsp
.loc 7 458 13
	movq 24(%rbp), %rax
	pushq %rax
	leaq .str_342(%rip), %rax
	pushq %rax
	call add_to_text_buffer
	addq $8, %rsp
	addq $8, %rsp
.loc 7 459 13
	movq 24(%rbp), %rax
	pushq %rax
	leaq .str_343(%rip), %rax
	pushq %rax
	call add_to_text_buffer
	addq $8, %rsp
	addq $8, %rsp
.loc 7 460 13
	subq $4, %rsp
	movq 24(%rbp), %rax
	pushq %rax
	movl -8(%rbp), %eax
	subq $4, %rsp
	movl %eax, (%rsp)
	call add_size_letter
	addq $8, %rsp
	addq $4, %rsp
	addq $4, %rsp
.loc 7 461 13
	movq 24(%rbp), %rax
	pushq %rax
	leaq .str_344(%rip), %rax
	pushq %rax
	call add_to_text_buffer
	addq $8, %rsp
	addq $8, %rsp
.loc 7 462 13
	movq 24(%rbp), %rax
	pushq %rax
	leaq .str_345(%rip), %rax
	pushq %rax
	call add_to_text_buffer
	addq $8, %rsp
	addq $8, %rsp
.loc 7 463 13
	subq $12, %rsp
	movq 24(%rbp), %rax
	pushq %rax
	movq 16(%rbp), %rax
	movq 8(%rax), %rax
	pushq %rax
	movl -8(%rbp), %eax
	subq $4, %rsp
	movl %eax, (%rsp)
	call emit_operand_x86
	addq $8, %rsp
	addq $8, %rsp
	addq $4, %rsp
	addq $12, %rsp
.loc 7 464 13
	movq 24(%rbp), %rax
	pushq %rax
	leaq .str_346(%rip), %rax
	pushq %rax
	call add_to_text_buffer
	addq $8, %rsp
	addq $8, %rsp
	jmp .L254_end
	addq $16, %rsp
.L254_elseif_9:
	movl -4(%rbp), %eax
	movl $32, %edx
	cmpl %edx, %eax
	sete %al
	movb %al, %al
	cmpb $0, %al
	jz .L254_elseif_10
	subq $16, %rsp
.loc 7 467 13
	movq 24(%rbp), %rax
	pushq %rax
	leaq .str_347(%rip), %rax
	pushq %rax
	call add_to_text_buffer
	addq $8, %rsp
	addq $8, %rsp
.loc 7 468 13
	movq 24(%rbp), %rax
	pushq %rax
	leaq .str_348(%rip), %rax
	pushq %rax
	call add_to_text_buffer
	addq $8, %rsp
	addq $8, %rsp
	jmp .L254_end
	addq $16, %rsp
.L254_elseif_10:
	movl -4(%rbp), %eax
	movl $33, %edx
	cmpl %edx, %eax
	sete %al
	movb %al, %al
	cmpb $0, %al
	jz .L254_elseif_11
	subq $16, %rsp
.loc 7 471 13
	movq 24(%rbp), %rax
	pushq %rax
	leaq .str_349(%rip), %rax
	pushq %rax
	call add_to_text_buffer
	addq $8, %rsp
	addq $8, %rsp
	jmp .L254_end
	addq $16, %rsp
.L254_elseif_11:
	movl -4(%rbp), %eax
	movl $7, %edx
	cmpl %edx, %eax
	sete %al
	movb %al, %al
	cmpb $0, %al
	jz .L254_elseif_12
	subq $16, %rsp
.loc 7 475 13
	movl -8(%rbp), %eax
	movl $4, %edx
	cmpl %edx, %eax
	sete %al
	movb %al, %al
	cmpb $0, %al
	jz .L255_elseif_0
	subq $16, %rsp
.loc 7 477 17
	movq 24(%rbp), %rax
	pushq %rax
	leaq .str_350(%rip), %rax
	pushq %rax
	call add_to_text_buffer
	addq $8, %rsp
	addq $8, %rsp
.loc 7 478 17
	subq $12, %rsp
	movq 24(%rbp), %rax
	pushq %rax
	movq 16(%rbp), %rax
	movq (%rax), %rax
	pushq %rax
	movl -8(%rbp), %eax
	subq $4, %rsp
	movl %eax, (%rsp)
	call emit_operand_x86
	addq $8, %rsp
	addq $8, %rsp
	addq $4, %rsp
	addq $12, %rsp
.loc 7 479 17
	movq 24(%rbp), %rax
	pushq %rax
	leaq .str_351(%rip), %rax
	pushq %rax
	call add_to_text_buffer
	addq $8, %rsp
	addq $8, %rsp
.loc 7 480 17
	movq 24(%rbp), %rax
	pushq %rax
	leaq .str_352(%rip), %rax
	pushq %rax
	call add_to_text_buffer
	addq $8, %rsp
	addq $8, %rsp
.loc 7 481 17
	movq 24(%rbp), %rax
	pushq %rax
	leaq .str_353(%rip), %rax
	pushq %rax
	call add_to_text_buffer
	addq $8, %rsp
	addq $8, %rsp
	jmp .L255_end
	addq $16, %rsp
.L255_elseif_0:
	movl -8(%rbp), %eax
	movl $8, %edx
	cmpl %edx, %eax
	sete %al
	movb %al, %al
	cmpb $0, %al
	jz .L255_else
	subq $16, %rsp
.loc 7 484 17
	movq 24(%rbp), %rax
	pushq %rax
	leaq .str_354(%rip), %rax
	pushq %rax
	call add_to_text_buffer
	addq $8, %rsp
	addq $8, %rsp
.loc 7 485 17
	subq $12, %rsp
	movq 24(%rbp), %rax
	pushq %rax
	movq 16(%rbp), %rax
	movq (%rax), %rax
	pushq %rax
	movl -8(%rbp), %eax
	subq $4, %rsp
	movl %eax, (%rsp)
	call emit_operand_x86
	addq $8, %rsp
	addq $8, %rsp
	addq $4, %rsp
	addq $12, %rsp
.loc 7 486 17
	movq 24(%rbp), %rax
	pushq %rax
	leaq .str_355(%rip), %rax
	pushq %rax
	call add_to_text_buffer
	addq $8, %rsp
	addq $8, %rsp
.loc 7 487 17
	movq 24(%rbp), %rax
	pushq %rax
	leaq .str_356(%rip), %rax
	pushq %rax
	call add_to_text_buffer
	addq $8, %rsp
	addq $8, %rsp
.loc 7 488 17
	movq 24(%rbp), %rax
	pushq %rax
	leaq .str_357(%rip), %rax
	pushq %rax
	call add_to_text_buffer
	addq $8, %rsp
	addq $8, %rsp
	jmp .L255_end
	addq $16, %rsp
.L255_else:
	subq $16, %rsp
.loc 7 491 17
	subq $8, %rsp
	leaq .str_358(%rip), %rax
	pushq %rax
	subq $12, %rsp
	movl -8(%rbp), %eax
	subq $4, %rsp
	movl %eax, (%rsp)
	call int_to_str
	movq %rax, %rdx
	addq $4, %rsp
	addq $12, %rsp
	popq %rax
	pushq %rdx
	pushq %rax
	movq $64, %rdi
	call malloc
	movq %rax, %r15
	movq $0, %r14
	movq $64, %r13
	popq %r12
	call __append_string_to_builder
	popq %r12
	subq $8, %rsp
	call __append_string_to_builder
	addq $8, %rsp
	movq %r15, %rax
	movq %rax, %rax
	leaq .str_359(%rip), %rdx
	movq %rdx, %r12
	subq $8, %rsp
	call __append_string_to_builder
	addq $8, %rsp
	movq %r15, %rax
	movq %rax, %rax
	pushq %rax
	call error
	addq $8, %rsp
	addq $8, %rsp
	jmp .L255_end
	addq $16, %rsp
.L255_end:
	jmp .L254_end
	addq $16, %rsp
.L254_elseif_12:
	movl -4(%rbp), %eax
	movl $23, %edx
	cmpl %edx, %eax
	sete %al
	movb %al, %al
	cmpb $0, %al
	jz .L254_elseif_13
	subq $16, %rsp
.loc 7 495 13
	movl -8(%rbp), %eax
	movl $4, %edx
	cmpl %edx, %eax
	sete %al
	movb %al, %al
	cmpb $0, %al
	jz .L259_elseif_0
	subq $16, %rsp
.loc 7 496 17
	movq 24(%rbp), %rax
	pushq %rax
	leaq .str_360(%rip), %rax
	pushq %rax
	call add_to_text_buffer
	addq $8, %rsp
	addq $8, %rsp
.loc 7 497 17
	subq $12, %rsp
	movq 24(%rbp), %rax
	pushq %rax
	movq 16(%rbp), %rax
	movq (%rax), %rax
	pushq %rax
	movl -8(%rbp), %eax
	subq $4, %rsp
	movl %eax, (%rsp)
	call emit_operand_x86
	addq $8, %rsp
	addq $8, %rsp
	addq $4, %rsp
	addq $12, %rsp
.loc 7 498 17
	movq 24(%rbp), %rax
	pushq %rax
	leaq .str_361(%rip), %rax
	pushq %rax
	call add_to_text_buffer
	addq $8, %rsp
	addq $8, %rsp
.loc 7 499 17
	movq 24(%rbp), %rax
	pushq %rax
	leaq .str_362(%rip), %rax
	pushq %rax
	call add_to_text_buffer
	addq $8, %rsp
	addq $8, %rsp
.loc 7 500 17
	movq 24(%rbp), %rax
	pushq %rax
	leaq .str_363(%rip), %rax
	pushq %rax
	call add_to_text_buffer
	addq $8, %rsp
	addq $8, %rsp
.loc 7 501 17
	movq 24(%rbp), %rax
	pushq %rax
	leaq .str_364(%rip), %rax
	pushq %rax
	call add_to_text_buffer
	addq $8, %rsp
	addq $8, %rsp
.loc 7 502 17
	subq $12, %rsp
	movq 24(%rbp), %rax
	pushq %rax
	movq 16(%rbp), %rax
	movq 8(%rax), %rax
	pushq %rax
	movl -8(%rbp), %eax
	subq $4, %rsp
	movl %eax, (%rsp)
	call emit_operand_x86
	addq $8, %rsp
	addq $8, %rsp
	addq $4, %rsp
	addq $12, %rsp
.loc 7 503 17
	movq 24(%rbp), %rax
	pushq %rax
	leaq .str_365(%rip), %rax
	pushq %rax
	call add_to_text_buffer
	addq $8, %rsp
	addq $8, %rsp
	jmp .L259_end
	addq $16, %rsp
.L259_elseif_0:
	movl -8(%rbp), %eax
	movl $8, %edx
	cmpl %edx, %eax
	sete %al
	movb %al, %al
	cmpb $0, %al
	jz .L259_else
	subq $16, %rsp
.loc 7 506 17
	movq 24(%rbp), %rax
	pushq %rax
	leaq .str_366(%rip), %rax
	pushq %rax
	call add_to_text_buffer
	addq $8, %rsp
	addq $8, %rsp
.loc 7 507 17
	subq $12, %rsp
	movq 24(%rbp), %rax
	pushq %rax
	movq 16(%rbp), %rax
	movq (%rax), %rax
	pushq %rax
	movl -8(%rbp), %eax
	subq $4, %rsp
	movl %eax, (%rsp)
	call emit_operand_x86
	addq $8, %rsp
	addq $8, %rsp
	addq $4, %rsp
	addq $12, %rsp
.loc 7 508 17
	movq 24(%rbp), %rax
	pushq %rax
	leaq .str_367(%rip), %rax
	pushq %rax
	call add_to_text_buffer
	addq $8, %rsp
	addq $8, %rsp
.loc 7 509 17
	movq 24(%rbp), %rax
	pushq %rax
	leaq .str_368(%rip), %rax
	pushq %rax
	call add_to_text_buffer
	addq $8, %rsp
	addq $8, %rsp
.loc 7 510 17
	movq 24(%rbp), %rax
	pushq %rax
	leaq .str_369(%rip), %rax
	pushq %rax
	call add_to_text_buffer
	addq $8, %rsp
	addq $8, %rsp
.loc 7 511 17
	movq 24(%rbp), %rax
	pushq %rax
	leaq .str_370(%rip), %rax
	pushq %rax
	call add_to_text_buffer
	addq $8, %rsp
	addq $8, %rsp
.loc 7 512 17
	subq $12, %rsp
	movq 24(%rbp), %rax
	pushq %rax
	movq 16(%rbp), %rax
	movq 8(%rax), %rax
	pushq %rax
	movl -8(%rbp), %eax
	subq $4, %rsp
	movl %eax, (%rsp)
	call emit_operand_x86
	addq $8, %rsp
	addq $8, %rsp
	addq $4, %rsp
	addq $12, %rsp
.loc 7 513 17
	movq 24(%rbp), %rax
	pushq %rax
	leaq .str_371(%rip), %rax
	pushq %rax
	call add_to_text_buffer
	addq $8, %rsp
	addq $8, %rsp
	jmp .L259_end
	addq $16, %rsp
.L259_else:
	subq $16, %rsp
.loc 7 516 17
	subq $8, %rsp
	leaq .str_372(%rip), %rax
	pushq %rax
	subq $12, %rsp
	movl -8(%rbp), %eax
	subq $4, %rsp
